     1                        ;;;
     2                        ;;;	GAME Language interpreter ,Takeoka ver.
     3                        ;;;	by Shozo TAKEOKA (http://www.takeoka.org/~take/ )
     4                        ;;;
     5                        ;;; Ported for MEZW65C-RAM by Akihito Honda. 
     6                        ;;; 2024.10
     7                        ;;;
     8                        ;;; Thanks all.
     9                        ;;;
    10                        
    11                        	pl	0
    12                        	pw      132
    13                        	chip    65816
    14                        
    15                        	include "w65c816.inc"
    16                        
    17                        ;;;
    18                        ;;; File header template (BIOS CALL version)
    19                        ;;;	
    20                        
    21             0000D100   PRG_B	EQU	$D100
    22             00000400   WORK_B	EQU	$400
    23             0000E8FF   WORK_END	EQU	$E8FF
    24                        
    25             00000000   USER_PB	equ	0	; program bank = 2
    26             00000000   USER_DB	equ	0	; data bank = 0 (Direct Page area)
    27             00000300   USER_DP	equ	$300
    28             000002FF   USER_SP	equ	USER_DP-1
    29                        
    30             00000000   ZERO_B	EQU	$00
    31                        
    32                        ;-----------------------------------------------------
    33                        ;ZERO page
    34                        ; NOTE
    35                        ;  Since ZERO page is shared with the monitor program,
    36                        ;  you must use a free area.
    37                        ;  See the monitor program.
    38                        ;-----------------------------------------------------
    39                        
    40                        ;	.page0
    41                        ;	ORG	ZERO_B
    42                        
    43                        ;--------------------------------------
    44                        ; Data area
    45                        ;--------------------------------------
    46                        
    47                        	udata
    48                        	org	WORK_B
    49                        
    50 00:0400:              text_buf	ds	$7800
    51 00:7C00:              mm		ds	4
    52 00:7C04:              var		ds	256
    53 00:7D04:              lno		ds	2
    54 00:7D06:              stack		ds	200
    55 00:7DCE:              sp		ds	2
    56 00:7DD0:              pc		ds	2
    57 00:7DD2:              lky_buf	ds	160
    58 00:7E72:              lin		ds	160
    59                        
    60 00:7F12:              seed1	ds	2
    61 00:7F14:              seed2	ds	2
    62 00:7F16:              rand_v1	ds	2
    63 00:7F18:              rand_v2	ds	2
    64                        
    65 00:7F1A:              val_a	ds	2
    66 00:7F1C:              val_x	ds	2
    67 00:7F1E:              val_y	ds	2
    68 00:7F20:              remn	ds	2
    69 00:7F22:              div_y	ds	2	; quotient
    70 00:7F24:              div_x	ds	2
    71 00:7F26:              negf	ds	2
    72                        
    73                        	CODE
    74                        	ORG	PRG_B
    75                        ;--------- MEZW65C_RAM file header --------------------------
    76 00:D100: 00           	db	USER_PB		; program bank:W65C816, 0:W65C02
    77 00:D101: 71 D1        	dw	COLD_START
    78 00:D103: 00           	db	USER_DB		; data bank:W65C816, 0:W65C02
    79 00:D104: 61 D1        	dw	warm_boot
    80                        
    81 00:D106: 00 03        	dw	USER_DP		; DP
    82                        
    83 00:D108: 4D 45 5A 57  mezID:	db	"MEZW65C",0	; Unique ID
       00:D10C: 36 35 43 00 
    84                        
    85                        start_p:	;file load address
    86 00:D110: 00 D1        	dw	PRG_B		; load address (Low)
    87 00:D112: 00           	db	USER_PB		; PBR : program bank(W65C816)
    88 00:D113: 00           	db	0		; reserve
    89                        
    90                        	; define Common memory address
    91 00:D114: 00 00        PIC_IF:	dw	0	; reserve
    92 00:D116: 00 00        	dw	0	; reserve
    93                        
    94 00:D118: 01           SW_816:	db	1	; 0 : W65C02
    95                        			; 1 : W65C816 native mode 
    96                        			; 2 : works in both modes
    97 00:D119: 00           irq_sw	db	0	; 0 : no use IRQ console I/O
    98                        			; 1 : use IRQ timer interrupt driven console I/O
    99 00:D11A: 00 00        reg_tp	dw	0	; monitor reserve (register save pointer)
   100 00:D11C: 00 00        reg_ts	dw	0	; monitor reserve (register table size)
   101 00:D11E: 00           nmi_sw	db	0	; 0 : No NMI support, 1: NMI support
   102 00:D11F: 01           bios_sw	db	1	; 0 : standalone program
   103                        			; 1 : program call bios command
   104                        			; 2 : monitor program (.SYS)
   105                        ;--------- MEZW65C_RAM file header --------------------------
   106                        
   107                        ;;;     Console Driver
   108                        ;;;
   109             00000001   CONIN_NO	equ	1
   110             00000002   CONOUT_NO	equ	2
   111             00000003   CONST_NO	equ	3
   112             000000FF   PRG_END		equ	$FF
   113                        
   114                        c_getch
   115 00:D120: 00 01        	BRK	CONIN_NO
   116 00:D122: 60           	rts
   117                        
   118                        c_kbhit
   119 00:D123: 00 03        	BRK	CONST_NO
   120 00:D125: 60           	rts
   121                        
   122                        ; SP              -> 0          |
   123                        ; PC(Low)           +1          v 
   124                        ; PC(High)          +2   <- SP  0 --> Pull A ( return PC address ) 
   125                        ; init val(Low)     +3          1    (set return address low )  (lda 1,s)
   126                        ; init val(Higj)    +4          2    (set return address high)
   127                        c_putch
   128                        	long_a
+  128 00:D126: C2 20                        rep     #M_FLAG
+  128                                        longa   on
   129 00:D128: A3 03        	lda	3,s	; get init value
   130 00:D12A: 00 02        	BRK	CONOUT_NO
   131 00:D12C: 68           	pla		; get return address
   132 00:D12D: 83 01        	sta	1,s	; set return address
   133 00:D12F: 60           	rts
   134                        
   135                        rand
   136                        	long_a
+  136 00:D130: C2 20                        rep     #M_FLAG
+  136                                        longa   on
   137 00:D132: AD 12 7F     	lda	seed1
   138 00:D135: 8D 18 7F     	sta	rand_v2
   139 00:D138: 0A           	asl	a
   140 00:D139: AD 14 7F     	lda	seed2
   141 00:D13C: 2A           	rol	a
   142 00:D13D: 8D 16 7F     	sta	rand_v1
   143 00:D140: AD 13 7F     	lda	seed1+1
   144 00:D143: 4D 16 7F     	eor	rand_v1
   145 00:D146: 8D 12 7F     	sta	seed1
   146 00:D149: AD 18 7F     	lda	rand_v2
   147 00:D14C: 8D 14 7F     	sta	seed2
   148 00:D14F: AD 12 7F     	lda	seed1
   149 00:D152: 60           	rts
   150                        
   151                        ; SP              -> 0          |
   152                        ; PC(Low)           +1          v 
   153                        ; PC(High)          +2   <- SP  0 --> Pull A ( return PC address ) 
   154                        ; init val(Low)     +3          1    (set return address low )  (lda 1,s)
   155                        ; init val(Higj)    +4          2    (set return address high)
   156                        srand
   157                        	long_a
+  157 00:D153: C2 20                        rep     #M_FLAG
+  157                                        longa   on
   158 00:D155: A3 03        	lda	3,s	; get init value
   159 00:D157: 8D 12 7F     	sta	seed1
   160 00:D15A: 8D 14 7F     	sta	seed2
   161                        
   162 00:D15D: 68           	pla		; get return address
   163 00:D15E: 83 01        	sta	1,s	; set return address
   164 00:D160: 60           	rts
   165                        
   166                        warm_boot
   167                        	long_ai
+  167 00:D161: C2 30                        rep     #M_FLAG|X_FLAG
+  167                                        longa   on
+  167                                        longi   on
   168 00:D163: A9 FF 02     	lda	#USER_SP
   169 00:D166: 1B           	tas
   170 00:D167: F4 01 00     	pea	#1
   171 00:D16A: 20 CB D2     	jsr	main
   172                        	
   173                        ; Terminate VTL
   174                        mach_fin
   175 00:D16D: 00 FF        	BRK	PRG_END
   176 00:D16F: 80 FE        end_end	bra	end_end
   177                        
   178                        COLD_START
   179                        	long_ai
+  179 00:D171: C2 30                        rep     #M_FLAG|X_FLAG
+  179                                        longa   on
+  179                                        longi   on
   180 00:D173: A9 FF 02     	lda	#USER_SP
   181 00:D176: 1B           	tas
   182 00:D177: F4 00 00     	pea	#0
   183 00:D17A: 20 CB D2     	jsr	main
   184                        
   185                        mul:
   186                        	longa on
   187                        	longi on
   188                        	
   189 00:D17D: 8E 1C 7F     	stx	val_x
   190 00:D180: 9C 1E 7F     	stz	val_y
   191                        
   192 00:D183: A2 10 00     	ldx	#16
   193 00:D186: 4A           	lsr	a
   194 00:D187: 8D 1A 7F     	sta	val_a
   195 00:D18A: B0 08        	bcs	add_x
   196                        
   197                        add_loop
   198 00:D18C: 0E 1C 7F     	asl	val_x
   199 00:D18F: 4E 1A 7F     	lsr	val_a
   200 00:D192: 90 0A        	bcc	skip_add
   201                        
   202                        add_x
   203 00:D194: AD 1E 7F     	lda	val_y
   204 00:D197: 18           	clc
   205 00:D198: 6D 1C 7F     	adc	val_x
   206 00:D19B: 8D 1E 7F     	sta	val_y
   207                        	
   208                        skip_add
   209 00:D19E: CA           	dex
   210 00:D19F: D0 EB        	bne	add_loop
   211                        
   212                        end_add
   213 00:D1A1: AD 1E 7F     	lda	val_y
   214 00:D1A4: 60           	rts
   215                        
   216                        ; - - - - - - - - - - - - - - - - - - - - - - - - - - ;
   217                        ; 16-bit signed division routine
   218                        ;	div_y /= div_x, {%} = remainder, {>} modified
   219                        ;	div_y /= 0 produces {%} = div_y, div_y = -32768 - 32767
   220                        ;
   221                        ;	input  A : div_y, X : div_x
   222                        ;	output A : div_y
   223                        div:
   224                        	longa on
   225                        	longi on
   226                        
   227 00:D1A5: 9C 26 7F     	stz	negf
   228 00:D1A8: 8D 22 7F     	sta	div_y
   229 00:D1AB: 8E 24 7F     	stx	div_x
   230                        
   231 00:D1AE: 89 00 80     	bit	#$8000
   232 00:D1B1: F0 0A        	beq	neg_div1
   233 00:D1B3: EE 26 7F     	inc	negf
   234 00:D1B6: 49 FF FF     	eor	#$FFFF
   235 00:D1B9: 1A           	inc	a
   236 00:D1BA: 8D 22 7F     	sta	div_y
   237                        	
   238                        neg_div1
   239 00:D1BD: 8A           	txa
   240 00:D1BE: 89 00 80     	bit	#$8000
   241 00:D1C1: F0 0A        	beq	neg_div2
   242 00:D1C3: EE 26 7F     	inc	negf
   243 00:D1C6: 49 FF FF     	eor	#$FFFF
   244 00:D1C9: 1A           	inc	a
   245 00:D1CA: 8D 24 7F     	sta	div_x
   246                        
   247                        neg_div2
   248 00:D1CD: AD 22 7F     	lda	div_y
   249 00:D1D0: AE 24 7F     	ldx	div_x
   250 00:D1D3: 20 ED D1     	jsr	u_div
   251                        
   252 00:D1D6: AD 26 7F     	lda	negf
   253 00:D1D9: 89 01 00     	bit	#$0001
   254 00:D1DC: D0 04        	bne	neg_div3
   255 00:D1DE: AD 22 7F     	lda	div_y
   256 00:D1E1: 60           	rts
   257                        	
   258                        neg_div3
   259 00:D1E2: AD 22 7F     	lda	div_y
   260 00:D1E5: 49 FF FF     	eor	#$FFFF
   261 00:D1E8: 1A           	inc	a
   262 00:D1E9: 8D 22 7F     	sta	div_y
   263 00:D1EC: 60           	rts
   264                        
   265                        ; - - - - - - - - - - - - - - - - - - - - - - - - - - ;
   266                        ; 16-bit unsigned division routine
   267                        ;	div_y /= div_x, {%} = remainder, {>} modified
   268                        ;	div_y /= 0 produces {%} = div_y, div_y = 65535
   269                        ;
   270                        ;	input  A : div_y, X : div_x
   271                        ;	output A : div_y
   272                        u_div:
   273                        	longa on
   274                        	longi on
   275                        
   276 00:D1ED: 8D 22 7F     	sta	div_y
   277 00:D1F0: 8E 24 7F     	stx	div_x
   278                        
   279 00:D1F3: 5A           	phy
   280 00:D1F4: A9 00 00     	lda	#0
   281 00:D1F7: 8D 20 7F     	sta	remn		; {%} = 0
   282 00:D1FA: A0 10 00     	ldy	#16
   283                        div1:
   284 00:D1FD: 0E 22 7F     	asl	div_y		; div_y is gradually replaced with the quotient
   285                        
   286 00:D200: 2E 20 7F     	rol	remn		; {%} is gradually replaced with the remainder
   287                        
   288 00:D203: AD 20 7F     	lda	remn
   289 00:D206: CD 24 7F     	cmp	div_x		; partial remainder >= div_x?
   290                        
   291 00:D209: 90 09        	bcc	div2
   292                        
   293 00:D20B: ED 24 7F     	sbc	div_x
   294 00:D20E: 8D 20 7F     	sta	remn		; yes: update the partial remainder
   295                        				;	and set the low bit in the partial quotient
   296                        	
   297 00:D211: EE 22 7F     	inc	div_y
   298                        
   299                        div2:
   300 00:D214: 88           	dey
   301 00:D215: D0 E6        	bne	div1		; loop 16 times
   302                        
   303 00:D217: AD 20 7F     	lda	remn
   304 00:D21A: 8D 4E 7C     	sta	var+74	; set system valiable %
   305 00:D21D: AD 22 7F     	lda	div_y		; A = quotient
   306                        
   307 00:D220: 7A           	ply
   308 00:D221: 60           	rts
   309                        	
   310                        mod:
   311                        	longa on
   312                        	longi on
   313                        
   314 00:D222: 8D 22 7F     	sta	div_y
   315 00:D225: 8E 24 7F     	stx	div_x
   316                        
   317 00:D228: 5A           	phy
   318 00:D229: A9 00 00     	lda	#0
   319 00:D22C: 8D 20 7F     	sta	remn		; {%} = 0
   320 00:D22F: A0 10 00     	ldy	#16
   321                        mod1:
   322 00:D232: 0E 22 7F     	asl	div_y		; div_y is gradually replaced with the quotient
   323                        
   324 00:D235: 2E 20 7F     	rol	remn		; {%} is gradually replaced with the remainder
   325                        
   326 00:D238: AD 20 7F     	lda	remn
   327 00:D23B: CD 24 7F     	cmp	div_x		; partial remainder >= div_x?
   328                        
   329 00:D23E: 90 09        	bcc	mod2
   330                        
   331 00:D240: ED 24 7F     	sbc	div_x
   332 00:D243: 8D 20 7F     	sta	remn		; yes: update the partial remainder
   333                        				;	and set the low bit in the partial quotient
   334                        	
   335 00:D246: EE 22 7F     	inc	div_y
   336                        
   337                        mod2:
   338 00:D249: 88           	dey
   339 00:D24A: D0 E6        	bne	mod1		; loop 16 times
   340                        
   341 00:D24C: AD 20 7F     	lda	remn
   342                        
   343 00:D24F: 7A           	ply
   344 00:D250: 60           	rts
   345                        ;
   346                        ;switch - case: jump function
   347                        ;ex)
   348                        ;pppp
   349                        ;	db	01
   350                        ;	db	00
   351                        ;	db	00
   352                        ;	db	00
   353                        ;	db	label1(L)-1
   354                        ;	db	label1(H)
   355                        ;	db	label2(L)-1
   356                        ;	db	label2(H)
   357                        ;
   358                        ; input A : switch( A )
   359                        
   360                        	longa	on
   361                        	longi	on
   362                        swt:
   363 00:D251: FA           	plx
   364                        ;SP->
   365                        ;  |	PC(L)-1 : pppp(L) -1
   366                        ;  v
   367                        ;SP->	PC(H)   : pppp(H)
   368                        
   369 00:D252: E8           	inx	; get table address
   370                        
   371 00:D253: BC 00 00     	ldy	0,x	; Y : get no of tables ($0007)
   372                        
   373 00:D256: E8           	inx
   374 00:D257: E8           	inx		; compare value address
   375                        loop_sw:
   376 00:D258: DD 00 00     	cmp	0,x
   377 00:D25B: F0 0C        	beq	go_jmp
   378 00:D25D: E8           	inx		;+1
   379 00:D25E: E8           	inx		;+2
   380 00:D25F: E8           	inx		;+3
   381 00:D260: E8           	inx		;+4 : next address of compare value
   382 00:D261: 88           	dey
   383 00:D262: D0 F4        	bne	loop_sw
   384                        	; no much
   385                        psh_ret:
   386 00:D264: BD 00 00     	lda	0,x	; escape switch 
   387 00:D267: 48           	pha		; push jump address
   388 00:D268: 60           	rts
   389                        	
   390                        go_jmp:
   391 00:D269: E8           	inx
   392 00:D26A: E8           	inx
   393 00:D26B: 80 F7        	bra	psh_ret
   394                        
   395                        ;;;;;;;;;;;;;;;;;;;;;;;;;;;;;;;;;;;;;;;;;;;
   396                        ;
   397                        ; GAME-C main program
   398                        ;
   399                        ;;;;;;;;;;;;;;;;;;;;;;;;;;;;;;;;;;;;;;;;;;;
   400                        ;:ts=8
   401                        
   402             00000001   R0	equ	1
   403             00000005   R1	equ	5
   404             00000009   R2	equ	9
   405             0000000D   R3	equ	13
   406                        
   407                        c_puts:
   408                        	longa	on
   409                        	longi	on
   410 00:D26D: 3B           	tsc
   411 00:D26E: 38           	sec
   412 00:D26F: E9 04 00     	sbc	#L2
   413 00:D272: 1B           	tcs
   414 00:D273: 0B           	phd
   415 00:D274: 5B           	tcd
   416             00000003   s_0	set	3
   417                        L10001:
   418 00:D275: B2 07        	lda	(<L2+s_0)
   419 00:D277: 29 FF 00     	and	#$ff
   420 00:D27A: D0 03        	bne	L4
   421 00:D27C: 82 12 00     	brl	L10002
   422                        L4:
   423 00:D27F: A5 07        	lda	<L2+s_0
   424 00:D281: 85 01        	sta	<R0
   425 00:D283: E6 07        	inc	<L2+s_0
   426 00:D285: B2 01        	lda	(<R0)
   427 00:D287: 29 FF 00     	and	#$ff
   428 00:D28A: 48           	pha
   429 00:D28B: 20 26 D1     	jsr	c_putch
   430 00:D28E: 82 E4 FF     	brl	L10001
   431                        L10002:
   432                        L5:
   433 00:D291: A5 05        	lda	<L2+1
   434 00:D293: 85 07        	sta	<L2+1+2
   435 00:D295: 2B           	pld
   436 00:D296: 3B           	tsc
   437 00:D297: 18           	clc
   438 00:D298: 69 06 00     	adc	#L2+2
   439 00:D29B: 1B           	tcs
   440 00:D29C: 60           	rts
   441             00000004   L2	equ	4
   442             00000005   L3	equ	5
   443                        
   444 00:D29D: 9F D2        open_msg:	dw	L1+0
   445 00:D29F: 47 41 4D 45  L1:		db	"GAME-C MEZW65C_RAM Edition",13,10,0
       00:D2A3: 2D 43 20 4D 
       00:D2A7: 45 5A 57 36 
       00:D2AB: 35 43 5F 52 
       00:D2AF: 41 4D 20 45 
       00:D2B3: 64 69 74 69 
       00:D2B7: 6F 6E 0D 0A 
       00:D2BB: 00 
   446                        
   447 00:D2BC: BE D2        rdy_msg:	dw	L6+0
   448 00:D2BE: 2A 52 45 41  L6:		db	"*READY",13,10,0
       00:D2C2: 44 59 0D 0A 
       00:D2C6: 00 
   449                        
   450 00:D2C7: C9 D2        t_lock:	dw	L7+0
   451 00:D2C9: 31 00        L7:		db	'1',0
   452                        
   453                        main:
   454                        	longa	on
   455                        	longi	on
   456 00:D2CB: 3B           	tsc
   457 00:D2CC: 38           	sec
   458 00:D2CD: E9 0E 00     	sbc	#L9
   459 00:D2D0: 1B           	tcs
   460 00:D2D1: 0B           	phd
   461 00:D2D2: 5B           	tcd
   462             00000003   st_flg_0	set	3
   463             00000000   n_1	set	0
   464             00000002   x_1	set	2
   465             00000004   cnt_1	set	4
   466 00:D2D3: A5 11        	lda	<L9+st_flg_0
   467 00:D2D5: 29 FF 00     	and	#$ff
   468 00:D2D8: F0 03        	beq	L11
   469 00:D2DA: 82 1C 00     	brl	L10003
   470                        L11:
   471 00:D2DD: F4 66 19     	pea	#<$1966
   472 00:D2E0: 20 53 D1     	jsr	srand
   473 00:D2E3: A9 00 04     	lda	#<text_buf
   474 00:D2E6: 8D 7E 7C     	sta	var+122
   475 00:D2E9: A9 FF 7F     	lda	#$7fff
   476 00:D2EC: 8D 58 7C     	sta	var+84
   477 00:D2EF: 20 1F E8     	jsr	newText1
   478 00:D2F2: AD 9D D2     	lda	open_msg
   479 00:D2F5: 48           	pha
   480 00:D2F6: 20 6D D2     	jsr	c_puts
   481                        L10003:
   482 00:D2F9: AD BC D2     	lda	rdy_msg
   483 00:D2FC: 48           	pha
   484 00:D2FD: 20 6D D2     	jsr	c_puts
   485                        L10004:
   486 00:D300: A9 FF FF     	lda	#$ffff
   487 00:D303: 8D CE 7D     	sta	sp
   488 00:D306: 9C 04 7D     	stz	lno
   489 00:D309: F4 72 7E     	pea	#<lin
   490 00:D30C: 20 60 E4     	jsr	c_gets
   491 00:D30F: 85 0D        	sta	<L10+cnt_1
   492 00:D311: A9 72 7E     	lda	#<lin
   493 00:D314: 1A           	ina
   494 00:D315: 85 01        	sta	<R0
   495 00:D317: 18           	clc
   496 00:D318: A5 01        	lda	<R0
   497 00:D31A: 65 0D        	adc	<L10+cnt_1
   498 00:D31C: 85 05        	sta	<R1
   499 00:D31E: E2 20        	sep	#$20
   500                        	longa	off
   501 00:D320: A9 80        	lda	#$80
   502 00:D322: 92 05        	sta	(<R1)
   503 00:D324: C2 20        	rep	#$20
   504                        	longa	on
   505 00:D326: A9 72 7E     	lda	#<lin
   506 00:D329: 8D D0 7D     	sta	pc
   507 00:D32C: 20 8B D7     	jsr	skipBlank
   508 00:D32F: 18           	clc
   509 00:D330: 7B           	tdc
   510 00:D331: 69 0B 00     	adc	#<L10+x_1
   511 00:D334: 48           	pha
   512 00:D335: 20 73 E6     	jsr	getNum
   513 00:D338: 85 09        	sta	<L10+n_1
   514 00:D33A: A5 0B        	lda	<L10+x_1
   515 00:D33C: F0 03        	beq	L12
   516 00:D33E: 82 10 00     	brl	L10006
   517                        L12:
   518 00:D341: 20 1B D8     	jsr	exqt
   519 00:D344: 20 43 E4     	jsr	newline
   520 00:D347: AD BC D2     	lda	rdy_msg
   521 00:D34A: 48           	pha
   522 00:D34B: 20 6D D2     	jsr	c_puts
   523 00:D34E: 82 05 00     	brl	L10007
   524                        L10006:
   525 00:D351: D4 09        	pei	<L10+n_1
   526 00:D353: 20 F7 D3     	jsr	edit
   527                        L10007:
   528 00:D356: 82 A7 FF     	brl	L10004
   529             0000000E   L9	equ	14
   530             00000009   L10	equ	9
   531                        
   532                        skipLine:
   533                        	longa	on
   534                        	longi	on
   535 00:D359: 3B           	tsc
   536 00:D35A: 38           	sec
   537 00:D35B: E9 04 00     	sbc	#L13
   538 00:D35E: 1B           	tcs
   539 00:D35F: 0B           	phd
   540 00:D360: 5B           	tcd
   541             00000003   p_0	set	3
   542                        L10008:
   543 00:D361: B2 07        	lda	(<L13+p_0)
   544 00:D363: 29 FF 00     	and	#$ff
   545 00:D366: D0 03        	bne	L15
   546 00:D368: 82 05 00     	brl	L10009
   547                        L15:
   548 00:D36B: E6 07        	inc	<L13+p_0
   549 00:D36D: 82 F1 FF     	brl	L10008
   550                        L10009:
   551 00:D370: A5 07        	lda	<L13+p_0
   552 00:D372: 1A           	ina
   553 00:D373: 85 01        	sta	<R0
   554 00:D375: A5 01        	lda	<R0
   555                        L16:
   556 00:D377: A8           	tay
   557 00:D378: A5 05        	lda	<L13+1
   558 00:D37A: 85 07        	sta	<L13+1+2
   559 00:D37C: 2B           	pld
   560 00:D37D: 3B           	tsc
   561 00:D37E: 18           	clc
   562 00:D37F: 69 06 00     	adc	#L13+2
   563 00:D382: 1B           	tcs
   564 00:D383: 98           	tya
   565 00:D384: 60           	rts
   566             00000004   L13	equ	4
   567             00000005   L14	equ	5
   568                        
   569                        searchLine:
   570                        	longa	on
   571                        	longi	on
   572 00:D385: 3B           	tsc
   573 00:D386: 38           	sec
   574 00:D387: E9 0C 00     	sbc	#L17
   575 00:D38A: 1B           	tcs
   576 00:D38B: 0B           	phd
   577 00:D38C: 5B           	tcd
   578             00000003   n_0	set	3
   579             00000005   f_0	set	5
   580             00000000   p_1	set	0
   581             00000002   l_1	set	2
   582 00:D38D: AD 7E 7C     	lda	var+122
   583 00:D390: 85 09        	sta	<L18+p_1
   584                        L10010:
   585 00:D392: E2 20        	sep	#$20
   586                        	longa	off
   587 00:D394: B2 09        	lda	(<L18+p_1)
   588 00:D396: 29 80        	and	#<$80
   589 00:D398: C2 20        	rep	#$20
   590                        	longa	on
   591 00:D39A: F0 03        	beq	L19
   592 00:D39C: 82 4E 00     	brl	L10011
   593                        L19:
   594 00:D39F: B2 09        	lda	(<L18+p_1)
   595 00:D3A1: EB           	xba			; A(low) <-> A(high)
   596 00:D3A2: 85 0B        	sta	<L18+l_1
   597 00:D3A4: A5 0F        	lda	<L17+n_0
   598 00:D3A6: C5 0B        	cmp	<L18+l_1
   599 00:D3A8: F0 03        	beq	L20
   600 00:D3AA: 82 15 00     	brl	L10012
   601                        L20:
   602 00:D3AD: A9 01 00     	lda	#$1
   603 00:D3B0: 92 11        	sta	(<L17+f_0)
   604 00:D3B2: A5 09        	lda	<L18+p_1
   605                        L21:
   606 00:D3B4: A8           	tay
   607 00:D3B5: A5 0D        	lda	<L17+1
   608 00:D3B7: 85 11        	sta	<L17+1+4
   609 00:D3B9: 2B           	pld
   610 00:D3BA: 3B           	tsc
   611 00:D3BB: 18           	clc
   612 00:D3BC: 69 10 00     	adc	#L17+4
   613 00:D3BF: 1B           	tcs
   614 00:D3C0: 98           	tya
   615 00:D3C1: 60           	rts
   616                        L10012:
   617 00:D3C2: 38           	sec
   618 00:D3C3: A5 0F        	lda	<L17+n_0
   619 00:D3C5: E5 0B        	sbc	<L18+l_1
   620 00:D3C7: 70 03        	bvs	L22
   621 00:D3C9: 49 00 80     	eor	#$8000
   622                        L22:
   623 00:D3CC: 10 03        	bpl	L23
   624 00:D3CE: 82 0A 00     	brl	L10013
   625                        L23:
   626 00:D3D1: A9 00 00     	lda	#$0
   627 00:D3D4: 92 11        	sta	(<L17+f_0)
   628 00:D3D6: A5 09        	lda	<L18+p_1
   629 00:D3D8: 82 D9 FF     	brl	L21
   630                        L10013:
   631 00:D3DB: 18           	clc
   632 00:D3DC: A9 02 00     	lda	#$2
   633 00:D3DF: 65 09        	adc	<L18+p_1
   634 00:D3E1: 85 01        	sta	<R0
   635 00:D3E3: D4 01        	pei	<R0
   636 00:D3E5: 20 59 D3     	jsr	skipLine
   637 00:D3E8: 85 09        	sta	<L18+p_1
   638 00:D3EA: 82 A5 FF     	brl	L10010
   639                        L10011:
   640 00:D3ED: A9 00 00     	lda	#$0
   641 00:D3F0: 92 11        	sta	(<L17+f_0)
   642 00:D3F2: A5 09        	lda	<L18+p_1
   643 00:D3F4: 82 BD FF     	brl	L21
   644             0000000C   L17	equ	12
   645             00000009   L18	equ	9
   646                        
   647                        edit:
   648                        	longa	on
   649                        	longi	on
   650 00:D3F7: 3B           	tsc
   651 00:D3F8: 38           	sec
   652 00:D3F9: E9 08 00     	sbc	#L24
   653 00:D3FC: 1B           	tcs
   654 00:D3FD: 0B           	phd
   655 00:D3FE: 5B           	tcd
   656             00000003   n_0	set	3
   657             00000000   p_1	set	0
   658             00000002   f_1	set	2
   659 00:D3FF: A5 0B        	lda	<L24+n_0
   660 00:D401: F0 03        	beq	L26
   661 00:D403: 82 0D 00     	brl	L10014
   662                        L26:
   663 00:D406: AD 7E 7C     	lda	var+122
   664 00:D409: 48           	pha
   665 00:D40A: 20 5B D7     	jsr	dispList
   666 00:D40D: F4 00 00     	pea	#<$0
   667 00:D410: 20 6B E3     	jsr	w_boot
   668                        L10014:
   669 00:D413: 18           	clc
   670 00:D414: 7B           	tdc
   671 00:D415: 69 07 00     	adc	#<L25+f_1
   672 00:D418: 48           	pha
   673 00:D419: D4 0B        	pei	<L24+n_0
   674 00:D41B: 20 85 D3     	jsr	searchLine
   675 00:D41E: 85 05        	sta	<L25+p_1
   676 00:D420: AD D0 7D     	lda	pc
   677 00:D423: 85 01        	sta	<R0
   678 00:D425: E2 20        	sep	#$20
   679                        	longa	off
   680 00:D427: B2 01        	lda	(<R0)
   681 00:D429: C9 2F        	cmp	#<$2f
   682 00:D42B: C2 20        	rep	#$20
   683                        	longa	on
   684 00:D42D: F0 03        	beq	L27
   685 00:D42F: 82 0E 00     	brl	L10015
   686                        L27:
   687 00:D432: D4 05        	pei	<L25+p_1
   688 00:D434: 20 5B D7     	jsr	dispList
   689 00:D437: F4 00 00     	pea	#<$0
   690 00:D43A: 20 6B E3     	jsr	w_boot
   691 00:D43D: 82 50 00     	brl	L10016
   692                        L10015:
   693 00:D440: AD 50 7C     	lda	var+76
   694 00:D443: 85 01        	sta	<R0
   695 00:D445: E2 20        	sep	#$20
   696                        	longa	off
   697 00:D447: B2 01        	lda	(<R0)
   698 00:D449: C9 FF        	cmp	#<$ff
   699 00:D44B: C2 20        	rep	#$20
   700                        	longa	on
   701 00:D44D: D0 03        	bne	L28
   702 00:D44F: 82 07 00     	brl	L10017
   703                        L28:
   704 00:D452: AD C7 D2     	lda	t_lock
   705 00:D455: 48           	pha
   706 00:D456: 20 93 E3     	jsr	er_boot
   707                        L10017:
   708 00:D459: A5 07        	lda	<L25+f_1
   709 00:D45B: D0 03        	bne	L29
   710 00:D45D: 82 05 00     	brl	L10018
   711                        L29:
   712 00:D460: D4 05        	pei	<L25+p_1
   713 00:D462: 20 F2 D4     	jsr	deleteLine
   714                        L10018:
   715 00:D465: AD D0 7D     	lda	pc
   716 00:D468: 85 01        	sta	<R0
   717 00:D46A: B2 01        	lda	(<R0)
   718 00:D46C: 29 FF 00     	and	#$ff
   719 00:D46F: F0 03        	beq	L30
   720 00:D471: 82 11 00     	brl	L10019
   721                        L30:
   722 00:D474: A9 00 00     	lda	#$0
   723                        L31:
   724 00:D477: A8           	tay
   725 00:D478: A5 09        	lda	<L24+1
   726 00:D47A: 85 0B        	sta	<L24+1+2
   727 00:D47C: 2B           	pld
   728 00:D47D: 3B           	tsc
   729 00:D47E: 18           	clc
   730 00:D47F: 69 0A 00     	adc	#L24+2
   731 00:D482: 1B           	tcs
   732 00:D483: 98           	tya
   733 00:D484: 60           	rts
   734                        L10019:
   735 00:D485: AD D0 7D     	lda	pc
   736 00:D488: 48           	pha
   737 00:D489: D4 05        	pei	<L25+p_1
   738 00:D48B: D4 0B        	pei	<L24+n_0
   739 00:D48D: 20 96 D4     	jsr	addLine
   740                        L10016:
   741 00:D490: A9 00 00     	lda	#$0
   742 00:D493: 82 E1 FF     	brl	L31
   743             00000008   L24	equ	8
   744             00000005   L25	equ	5
   745                        
   746                        addLine:
   747                        	longa	on
   748                        	longi	on
   749 00:D496: 3B           	tsc
   750 00:D497: 38           	sec
   751 00:D498: E9 06 00     	sbc	#L32
   752 00:D49B: 1B           	tcs
   753 00:D49C: 0B           	phd
   754 00:D49D: 5B           	tcd
   755             00000003   n_0	set	3
   756             00000005   p_0	set	5
   757             00000007   new_0	set	7
   758             00000000   l_1	set	0
   759 00:D49E: D4 0D        	pei	<L32+new_0
   760 00:D4A0: 20 44 E6     	jsr	strlen
   761 00:D4A3: 85 01        	sta	<R0
   762 00:D4A5: 18           	clc
   763 00:D4A6: A9 03 00     	lda	#$3
   764 00:D4A9: 65 01        	adc	<R0
   765 00:D4AB: 85 05        	sta	<L33+l_1
   766 00:D4AD: 38           	sec
   767 00:D4AE: AD 50 7C     	lda	var+76
   768 00:D4B1: E5 0B        	sbc	<L32+p_0
   769 00:D4B3: 85 01        	sta	<R0
   770 00:D4B5: A5 01        	lda	<R0
   771 00:D4B7: 1A           	ina
   772 00:D4B8: 48           	pha
   773 00:D4B9: D4 0B        	pei	<L32+p_0
   774 00:D4BB: 18           	clc
   775 00:D4BC: A5 0B        	lda	<L32+p_0
   776 00:D4BE: 65 05        	adc	<L33+l_1
   777 00:D4C0: 85 01        	sta	<R0
   778 00:D4C2: D4 01        	pei	<R0
   779 00:D4C4: 20 44 E5     	jsr	memmove
   780 00:D4C7: A5 09        	lda	<L32+n_0
   781 00:D4C9: EB           	xba			; A(low) <-> A(high)
   782 00:D4CA: 92 0B        	sta	(<L32+p_0)
   783 00:D4CC: D4 0D        	pei	<L32+new_0
   784 00:D4CE: 18           	clc
   785 00:D4CF: A9 02 00     	lda	#$2
   786 00:D4D2: 65 0B        	adc	<L32+p_0
   787 00:D4D4: 85 01        	sta	<R0
   788 00:D4D6: D4 01        	pei	<R0
   789 00:D4D8: 20 BA E5     	jsr	strcpy
   790 00:D4DB: 18           	clc
   791 00:D4DC: AD 50 7C     	lda	var+76
   792 00:D4DF: 65 05        	adc	<L33+l_1
   793 00:D4E1: 8D 50 7C     	sta	var+76
   794                        L34:
   795 00:D4E4: A8           	tay
   796 00:D4E5: A5 07        	lda	<L32+1
   797 00:D4E7: 85 0D        	sta	<L32+1+6
   798 00:D4E9: 2B           	pld
   799 00:D4EA: 3B           	tsc
   800 00:D4EB: 18           	clc
   801 00:D4EC: 69 0C 00     	adc	#L32+6
   802 00:D4EF: 1B           	tcs
   803 00:D4F0: 98           	tya
   804 00:D4F1: 60           	rts
   805             00000006   L32	equ	6
   806             00000005   L33	equ	5
   807                        
   808                        deleteLine:
   809                        	longa	on
   810                        	longi	on
   811 00:D4F2: 3B           	tsc
   812 00:D4F3: 38           	sec
   813 00:D4F4: E9 0A 00     	sbc	#L35
   814 00:D4F7: 1B           	tcs
   815 00:D4F8: 0B           	phd
   816 00:D4F9: 5B           	tcd
   817             00000003   p_0	set	3
   818             00000000   l_1	set	0
   819 00:D4FA: 18           	clc
   820 00:D4FB: A9 02 00     	lda	#$2
   821 00:D4FE: 65 0D        	adc	<L35+p_0
   822 00:D500: 85 01        	sta	<R0
   823 00:D502: D4 01        	pei	<R0
   824 00:D504: 20 44 E6     	jsr	strlen
   825 00:D507: 85 05        	sta	<R1
   826 00:D509: 18           	clc
   827 00:D50A: A9 03 00     	lda	#$3
   828 00:D50D: 65 05        	adc	<R1
   829 00:D50F: 85 09        	sta	<L36+l_1
   830 00:D511: 38           	sec
   831 00:D512: AD 50 7C     	lda	var+76
   832 00:D515: E5 0D        	sbc	<L35+p_0
   833 00:D517: 85 01        	sta	<R0
   834 00:D519: 38           	sec
   835 00:D51A: A5 01        	lda	<R0
   836 00:D51C: E5 09        	sbc	<L36+l_1
   837 00:D51E: 85 05        	sta	<R1
   838 00:D520: A5 05        	lda	<R1
   839 00:D522: 1A           	ina
   840 00:D523: 48           	pha
   841 00:D524: 18           	clc
   842 00:D525: A5 0D        	lda	<L35+p_0
   843 00:D527: 65 09        	adc	<L36+l_1
   844 00:D529: 85 01        	sta	<R0
   845 00:D52B: D4 01        	pei	<R0
   846 00:D52D: D4 0D        	pei	<L35+p_0
   847 00:D52F: 20 44 E5     	jsr	memmove
   848 00:D532: 38           	sec
   849 00:D533: AD 50 7C     	lda	var+76
   850 00:D536: E5 09        	sbc	<L36+l_1
   851 00:D538: 8D 50 7C     	sta	var+76
   852                        L37:
   853 00:D53B: A8           	tay
   854 00:D53C: A5 0B        	lda	<L35+1
   855 00:D53E: 85 0D        	sta	<L35+1+2
   856 00:D540: 2B           	pld
   857 00:D541: 3B           	tsc
   858 00:D542: 18           	clc
   859 00:D543: 69 0C 00     	adc	#L35+2
   860 00:D546: 1B           	tcs
   861 00:D547: 98           	tya
   862 00:D548: 60           	rts
   863             0000000A   L35	equ	10
   864             00000009   L36	equ	9
   865                        
   866                        g_decStr:
   867                        	longa	on
   868                        	longi	on
   869 00:D549: 3B           	tsc
   870 00:D54A: 38           	sec
   871 00:D54B: E9 04 00     	sbc	#L38
   872 00:D54E: 1B           	tcs
   873 00:D54F: 0B           	phd
   874 00:D550: 5B           	tcd
   875             00000003   buf_0	set	3
   876             00000005   num_0	set	5
   877             00000000   cnt_1	set	0
   878             00000002   b_1	set	2
   879 00:D551: 64 01        	stz	<L39+cnt_1
   880                        L10022:
   881 00:D553: A5 09        	lda	<L38+num_0
   882 00:D555: A2 0A 00     	ldx	#<$a
   883                        ;	jsr	~umd
   884 00:D558: 20 22 D2     	jsr	mod
   885                        	
   886 00:D55B: 09 30 00     	ora	#<$30
   887 00:D55E: E2 20        	sep	#$20
   888                        	longa	off
   889 00:D560: 92 07        	sta	(<L38+buf_0)
   890 00:D562: C2 20        	rep	#$20
   891                        	longa	on
   892 00:D564: E6 07        	inc	<L38+buf_0
   893 00:D566: A5 09        	lda	<L38+num_0
   894 00:D568: A2 0A 00     	ldx	#<$a
   895                        ;	jsr	~udv
   896 00:D56B: 20 22 D2     	jsr	mod
   897 00:D56E: AD 22 7F     	lda	div_y
   898 00:D571: 85 09        	sta	<L38+num_0
   899 00:D573: E6 01        	inc	<L39+cnt_1
   900                        L10020:
   901 00:D575: A9 00 00     	lda	#$0
   902 00:D578: C5 09        	cmp	<L38+num_0
   903 00:D57A: B0 03        	bcs	L40
   904 00:D57C: 82 D4 FF     	brl	L10022
   905                        L40:
   906                        L10021:
   907 00:D57F: E2 20        	sep	#$20
   908                        	longa	off
   909 00:D581: A9 00        	lda	#$0
   910 00:D583: 92 07        	sta	(<L38+buf_0)
   911 00:D585: C2 20        	rep	#$20
   912                        	longa	on
   913 00:D587: A5 01        	lda	<L39+cnt_1
   914                        L41:
   915 00:D589: A8           	tay
   916 00:D58A: A5 05        	lda	<L38+1
   917 00:D58C: 85 09        	sta	<L38+1+4
   918 00:D58E: 2B           	pld
   919 00:D58F: 3B           	tsc
   920 00:D590: 18           	clc
   921 00:D591: 69 08 00     	adc	#L38+4
   922 00:D594: 1B           	tcs
   923 00:D595: 98           	tya
   924 00:D596: 60           	rts
   925             00000004   L38	equ	4
   926             00000001   L39	equ	1
   927                        
   928                        mk_dStr:
   929                        	longa	on
   930                        	longi	on
   931 00:D597: 3B           	tsc
   932 00:D598: 38           	sec
   933 00:D599: E9 1C 00     	sbc	#L42
   934 00:D59C: 1B           	tcs
   935 00:D59D: 0B           	phd
   936 00:D59E: 5B           	tcd
   937             00000003   d_buf_0	set	3
   938             00000005   num_0	set	5
   939             00000007   digit_0	set	7
   940             00000000   s_buf_1	set	0
   941             00000008   i_1	set	8
   942             0000000A   j_1	set	10
   943             0000000C   cnt_1	set	12
   944             0000000E   sign_1	set	14
   945 00:D59F: 64 1B        	stz	<L43+sign_1
   946 00:D5A1: A5 21        	lda	<L42+num_0
   947 00:D5A3: 29 00 80     	and	#<$8000
   948 00:D5A6: D0 03        	bne	L44
   949 00:D5A8: 82 11 00     	brl	L10023
   950                        L44:
   951 00:D5AB: A9 01 00     	lda	#$1
   952 00:D5AE: 85 1B        	sta	<L43+sign_1
   953 00:D5B0: A5 21        	lda	<L42+num_0
   954 00:D5B2: 49 FF FF     	eor	#<$ffffffff
   955 00:D5B5: 85 01        	sta	<R0
   956 00:D5B7: A5 01        	lda	<R0
   957 00:D5B9: 1A           	ina
   958 00:D5BA: 85 21        	sta	<L42+num_0
   959                        L10023:
   960 00:D5BC: D4 21        	pei	<L42+num_0
   961 00:D5BE: 18           	clc
   962 00:D5BF: 7B           	tdc
   963 00:D5C0: 69 0D 00     	adc	#<L43+s_buf_1
   964 00:D5C3: 48           	pha
   965 00:D5C4: 20 49 D5     	jsr	g_decStr
   966 00:D5C7: 85 19        	sta	<L43+cnt_1
   967 00:D5C9: A5 19        	lda	<L43+cnt_1
   968 00:D5CB: 85 17        	sta	<L43+j_1
   969 00:D5CD: A5 1B        	lda	<L43+sign_1
   970 00:D5CF: D0 03        	bne	L45
   971 00:D5D1: 82 02 00     	brl	L10024
   972                        L45:
   973 00:D5D4: E6 19        	inc	<L43+cnt_1
   974                        L10024:
   975 00:D5D6: 64 15        	stz	<L43+i_1
   976                        L10025:
   977 00:D5D8: 38           	sec
   978 00:D5D9: A5 19        	lda	<L43+cnt_1
   979 00:D5DB: E5 23        	sbc	<L42+digit_0
   980 00:D5DD: 70 03        	bvs	L46
   981 00:D5DF: 49 00 80     	eor	#$8000
   982                        L46:
   983 00:D5E2: 10 03        	bpl	L47
   984 00:D5E4: 82 16 00     	brl	L10026
   985                        L47:
   986 00:D5E7: 18           	clc
   987 00:D5E8: A5 1F        	lda	<L42+d_buf_0
   988 00:D5EA: 65 15        	adc	<L43+i_1
   989 00:D5EC: 85 01        	sta	<R0
   990 00:D5EE: E2 20        	sep	#$20
   991                        	longa	off
   992 00:D5F0: A9 20        	lda	#$20
   993 00:D5F2: 92 01        	sta	(<R0)
   994 00:D5F4: C2 20        	rep	#$20
   995                        	longa	on
   996 00:D5F6: E6 15        	inc	<L43+i_1
   997 00:D5F8: C6 23        	dec	<L42+digit_0
   998 00:D5FA: 82 DB FF     	brl	L10025
   999                        L10026:
  1000 00:D5FD: A5 1B        	lda	<L43+sign_1
  1001 00:D5FF: D0 03        	bne	L48
  1002 00:D601: 82 11 00     	brl	L10027
  1003                        L48:
  1004 00:D604: 18           	clc
  1005 00:D605: A5 1F        	lda	<L42+d_buf_0
  1006 00:D607: 65 15        	adc	<L43+i_1
  1007 00:D609: 85 01        	sta	<R0
  1008 00:D60B: E2 20        	sep	#$20
  1009                        	longa	off
  1010 00:D60D: A9 2D        	lda	#$2d
  1011 00:D60F: 92 01        	sta	(<R0)
  1012 00:D611: C2 20        	rep	#$20
  1013                        	longa	on
  1014 00:D613: E6 15        	inc	<L43+i_1
  1015                        L10027:
  1016                        L10028:
  1017 00:D615: A5 17        	lda	<L43+j_1
  1018 00:D617: D0 03        	bne	L49
  1019 00:D619: 82 2C 00     	brl	L10029
  1020                        L49:
  1021 00:D61C: 18           	clc
  1022 00:D61D: A5 1F        	lda	<L42+d_buf_0
  1023 00:D61F: 65 15        	adc	<L43+i_1
  1024 00:D621: 85 01        	sta	<R0
  1025 00:D623: 18           	clc
  1026 00:D624: 7B           	tdc
  1027 00:D625: 69 0D 00     	adc	#<L43+s_buf_1
  1028 00:D628: 85 05        	sta	<R1
  1029 00:D62A: 18           	clc
  1030 00:D62B: A9 FF FF     	lda	#$ffff
  1031 00:D62E: 65 05        	adc	<R1
  1032 00:D630: 85 09        	sta	<R2
  1033 00:D632: 18           	clc
  1034 00:D633: A5 09        	lda	<R2
  1035 00:D635: 65 17        	adc	<L43+j_1
  1036 00:D637: 85 05        	sta	<R1
  1037 00:D639: E2 20        	sep	#$20
  1038                        	longa	off
  1039 00:D63B: B2 05        	lda	(<R1)
  1040 00:D63D: 92 01        	sta	(<R0)
  1041 00:D63F: C2 20        	rep	#$20
  1042                        	longa	on
  1043 00:D641: E6 15        	inc	<L43+i_1
  1044 00:D643: C6 17        	dec	<L43+j_1
  1045 00:D645: 82 CD FF     	brl	L10028
  1046                        L10029:
  1047 00:D648: 18           	clc
  1048 00:D649: A5 1F        	lda	<L42+d_buf_0
  1049 00:D64B: 65 15        	adc	<L43+i_1
  1050 00:D64D: 85 01        	sta	<R0
  1051 00:D64F: E2 20        	sep	#$20
  1052                        	longa	off
  1053 00:D651: A9 00        	lda	#$0
  1054 00:D653: 92 01        	sta	(<R0)
  1055 00:D655: C2 20        	rep	#$20
  1056                        	longa	on
  1057                        L50:
  1058 00:D657: A5 1D        	lda	<L42+1
  1059 00:D659: 85 23        	sta	<L42+1+6
  1060 00:D65B: 2B           	pld
  1061 00:D65C: 3B           	tsc
  1062 00:D65D: 18           	clc
  1063 00:D65E: 69 22 00     	adc	#L42+6
  1064 00:D661: 1B           	tcs
  1065 00:D662: 60           	rts
  1066             0000001C   L42	equ	28
  1067             0000000D   L43	equ	13
  1068                        
  1069                        g_hexStr:
  1070                        	longa	on
  1071                        	longi	on
  1072 00:D663: 3B           	tsc
  1073 00:D664: 38           	sec
  1074 00:D665: E9 09 00     	sbc	#L51
  1075 00:D668: 1B           	tcs
  1076 00:D669: 0B           	phd
  1077 00:D66A: 5B           	tcd
  1078             00000003   buf_0	set	3
  1079             00000005   num_0	set	5
  1080             00000007   cnt_0	set	7
  1081             00000000   i_1	set	0
  1082             00000002   n_1	set	2
  1083             00000003   msk_1	set	3
  1084 00:D66B: A5 10        	lda	<L51+cnt_0
  1085 00:D66D: C9 04 00     	cmp	#<$4
  1086 00:D670: F0 03        	beq	L53
  1087 00:D672: 82 08 00     	brl	L10030
  1088                        L53:
  1089 00:D675: A9 00 F0     	lda	#$f000
  1090 00:D678: 85 08        	sta	<L52+msk_1
  1091 00:D67A: 82 05 00     	brl	L10031
  1092                        L10030:
  1093 00:D67D: A9 F0 00     	lda	#$f0
  1094 00:D680: 85 08        	sta	<L52+msk_1
  1095                        L10031:
  1096 00:D682: A5 10        	lda	<L51+cnt_0
  1097 00:D684: 0A           	asl	A
  1098 00:D685: 0A           	asl	A
  1099 00:D686: 85 01        	sta	<R0
  1100 00:D688: 18           	clc
  1101 00:D689: A9 FC FF     	lda	#$fffc
  1102 00:D68C: 65 01        	adc	<R0
  1103 00:D68E: 85 05        	sta	<L52+i_1
  1104                        L10034:
  1105 00:D690: A5 08        	lda	<L52+msk_1
  1106 00:D692: 25 0E        	and	<L51+num_0
  1107 00:D694: A6 05        	ldx	<L52+i_1
  1108                        ;	jsr	lsr
  1109                        ; input A, X
  1110                        ;
  1111                        ; A = A << X
  1112                        
  1113                        shift_left:
  1114 00:D696: 4A           	lsr	A
  1115 00:D697: CA           	dex
  1116 00:D698: D0 FC        	bne	shift_left
  1117                        
  1118 00:D69A: 85 01        	sta	<R0
  1119 00:D69C: E2 20        	sep	#$20
  1120                        	longa	off
  1121 00:D69E: A5 01        	lda	<R0
  1122 00:D6A0: 85 07        	sta	<L52+n_1
  1123 00:D6A2: C2 20        	rep	#$20
  1124                        	longa	on
  1125 00:D6A4: A5 08        	lda	<L52+msk_1
  1126 00:D6A6: 4A           	lsr	A
  1127 00:D6A7: 4A           	lsr	A
  1128 00:D6A8: 4A           	lsr	A
  1129 00:D6A9: 4A           	lsr	A
  1130 00:D6AA: 85 08        	sta	<L52+msk_1
  1131 00:D6AC: E2 20        	sep	#$20
  1132                        	longa	off
  1133 00:D6AE: A9 09        	lda	#$9
  1134 00:D6B0: C5 07        	cmp	<L52+n_1
  1135 00:D6B2: C2 20        	rep	#$20
  1136                        	longa	on
  1137 00:D6B4: 90 03        	bcc	L54
  1138 00:D6B6: 82 0E 00     	brl	L10035
  1139                        L54:
  1140 00:D6B9: E2 20        	sep	#$20
  1141                        	longa	off
  1142 00:D6BB: 18           	clc
  1143 00:D6BC: A9 37        	lda	#$37
  1144 00:D6BE: 65 07        	adc	<L52+n_1
  1145 00:D6C0: 85 07        	sta	<L52+n_1
  1146 00:D6C2: C2 20        	rep	#$20
  1147                        	longa	on
  1148 00:D6C4: 82 0B 00     	brl	L10036
  1149                        L10035:
  1150 00:D6C7: E2 20        	sep	#$20
  1151                        	longa	off
  1152 00:D6C9: 18           	clc
  1153 00:D6CA: A9 30        	lda	#$30
  1154 00:D6CC: 65 07        	adc	<L52+n_1
  1155 00:D6CE: 85 07        	sta	<L52+n_1
  1156 00:D6D0: C2 20        	rep	#$20
  1157                        	longa	on
  1158                        L10036:
  1159 00:D6D2: E2 20        	sep	#$20
  1160                        	longa	off
  1161 00:D6D4: A5 07        	lda	<L52+n_1
  1162 00:D6D6: 92 0C        	sta	(<L51+buf_0)
  1163 00:D6D8: C2 20        	rep	#$20
  1164                        	longa	on
  1165 00:D6DA: E6 0C        	inc	<L51+buf_0
  1166 00:D6DC: 18           	clc
  1167 00:D6DD: A9 FC FF     	lda	#$fffc
  1168 00:D6E0: 65 05        	adc	<L52+i_1
  1169 00:D6E2: 85 05        	sta	<L52+i_1
  1170                        L10032:
  1171 00:D6E4: A5 05        	lda	<L52+i_1
  1172 00:D6E6: 30 03        	bmi	L55
  1173 00:D6E8: 82 A5 FF     	brl	L10034
  1174                        L55:
  1175                        L10033:
  1176 00:D6EB: E2 20        	sep	#$20
  1177                        	longa	off
  1178 00:D6ED: A9 00        	lda	#$0
  1179 00:D6EF: 92 0C        	sta	(<L51+buf_0)
  1180 00:D6F1: C2 20        	rep	#$20
  1181                        	longa	on
  1182                        L56:
  1183 00:D6F3: A5 0A        	lda	<L51+1
  1184 00:D6F5: 85 10        	sta	<L51+1+6
  1185 00:D6F7: 2B           	pld
  1186 00:D6F8: 3B           	tsc
  1187 00:D6F9: 18           	clc
  1188 00:D6FA: 69 0F 00     	adc	#L51+6
  1189 00:D6FD: 1B           	tcs
  1190 00:D6FE: 60           	rts
  1191             00000009   L51	equ	9
  1192             00000005   L52	equ	5
  1193                        
  1194                        dispLine:
  1195                        	longa	on
  1196                        	longi	on
  1197 00:D6FF: 3B           	tsc
  1198 00:D700: 38           	sec
  1199 00:D701: E9 12 00     	sbc	#L57
  1200 00:D704: 1B           	tcs
  1201 00:D705: 0B           	phd
  1202 00:D706: 5B           	tcd
  1203             00000003   p_0	set	3
  1204             00000000   l_1	set	0
  1205             00000002   s_1	set	2
  1206 00:D707: B2 15        	lda	(<L57+p_0)
  1207 00:D709: EB           	xba			; A(low) <-> A(high)
  1208 00:D70A: 85 09        	sta	<L58+l_1
  1209 00:D70C: E6 15        	inc	<L57+p_0
  1210 00:D70E: E6 15        	inc	<L57+p_0
  1211 00:D710: F4 05 00     	pea	#<$5
  1212 00:D713: D4 09        	pei	<L58+l_1
  1213 00:D715: 18           	clc
  1214 00:D716: 7B           	tdc
  1215 00:D717: 69 0B 00     	adc	#<L58+s_1
  1216 00:D71A: 48           	pha
  1217 00:D71B: 20 97 D5     	jsr	mk_dStr
  1218 00:D71E: 18           	clc
  1219 00:D71F: 7B           	tdc
  1220 00:D720: 69 0B 00     	adc	#<L58+s_1
  1221 00:D723: 48           	pha
  1222 00:D724: 20 6D D2     	jsr	c_puts
  1223                        L10037:
  1224 00:D727: B2 15        	lda	(<L57+p_0)
  1225 00:D729: 29 FF 00     	and	#$ff
  1226 00:D72C: D0 03        	bne	L59
  1227 00:D72E: 82 12 00     	brl	L10038
  1228                        L59:
  1229 00:D731: A5 15        	lda	<L57+p_0
  1230 00:D733: 85 01        	sta	<R0
  1231 00:D735: E6 15        	inc	<L57+p_0
  1232 00:D737: B2 01        	lda	(<R0)
  1233 00:D739: 29 FF 00     	and	#$ff
  1234 00:D73C: 48           	pha
  1235 00:D73D: 20 26 D1     	jsr	c_putch
  1236 00:D740: 82 E4 FF     	brl	L10037
  1237                        L10038:
  1238 00:D743: 20 43 E4     	jsr	newline
  1239 00:D746: A5 15        	lda	<L57+p_0
  1240 00:D748: 1A           	ina
  1241 00:D749: 85 01        	sta	<R0
  1242 00:D74B: A5 01        	lda	<R0
  1243                        L60:
  1244 00:D74D: A8           	tay
  1245 00:D74E: A5 13        	lda	<L57+1
  1246 00:D750: 85 15        	sta	<L57+1+2
  1247 00:D752: 2B           	pld
  1248 00:D753: 3B           	tsc
  1249 00:D754: 18           	clc
  1250 00:D755: 69 14 00     	adc	#L57+2
  1251 00:D758: 1B           	tcs
  1252 00:D759: 98           	tya
  1253 00:D75A: 60           	rts
  1254             00000012   L57	equ	18
  1255             00000009   L58	equ	9
  1256                        
  1257                        dispList:
  1258                        	longa	on
  1259                        	longi	on
  1260 00:D75B: 3B           	tsc
  1261 00:D75C: 38           	sec
  1262 00:D75D: E9 00 00     	sbc	#L61
  1263 00:D760: 1B           	tcs
  1264 00:D761: 0B           	phd
  1265 00:D762: 5B           	tcd
  1266             00000003   p_0	set	3
  1267                        L10039:
  1268 00:D763: E2 20        	sep	#$20
  1269                        	longa	off
  1270 00:D765: B2 03        	lda	(<L61+p_0)
  1271 00:D767: 29 80        	and	#<$80
  1272 00:D769: C2 20        	rep	#$20
  1273                        	longa	on
  1274 00:D76B: F0 03        	beq	L63
  1275 00:D76D: 82 0D 00     	brl	L10040
  1276                        L63:
  1277 00:D770: 20 92 D8     	jsr	breakCheck
  1278 00:D773: D4 03        	pei	<L61+p_0
  1279 00:D775: 20 FF D6     	jsr	dispLine
  1280 00:D778: 85 03        	sta	<L61+p_0
  1281 00:D77A: 82 E6 FF     	brl	L10039
  1282                        L10040:
  1283                        L64:
  1284 00:D77D: A8           	tay
  1285 00:D77E: A5 01        	lda	<L61+1
  1286 00:D780: 85 03        	sta	<L61+1+2
  1287 00:D782: 2B           	pld
  1288 00:D783: 3B           	tsc
  1289 00:D784: 18           	clc
  1290 00:D785: 69 02 00     	adc	#L61+2
  1291 00:D788: 1B           	tcs
  1292 00:D789: 98           	tya
  1293 00:D78A: 60           	rts
  1294             00000000   L61	equ	0
  1295             00000001   L62	equ	1
  1296                        
  1297                        skipBlank:
  1298                        	longa	on
  1299                        	longi	on
  1300 00:D78B: 3B           	tsc
  1301 00:D78C: 38           	sec
  1302 00:D78D: E9 04 00     	sbc	#L65
  1303 00:D790: 1B           	tcs
  1304 00:D791: 0B           	phd
  1305 00:D792: 5B           	tcd
  1306                        L10041:
  1307 00:D793: AD D0 7D     	lda	pc
  1308 00:D796: 85 01        	sta	<R0
  1309 00:D798: E2 20        	sep	#$20
  1310                        	longa	off
  1311 00:D79A: B2 01        	lda	(<R0)
  1312 00:D79C: C9 20        	cmp	#<$20
  1313 00:D79E: C2 20        	rep	#$20
  1314                        	longa	on
  1315 00:D7A0: D0 03        	bne	L67
  1316 00:D7A2: 82 0A 00     	brl	L10043
  1317                        L67:
  1318                        L68:
  1319 00:D7A5: A8           	tay
  1320 00:D7A6: 2B           	pld
  1321 00:D7A7: 3B           	tsc
  1322 00:D7A8: 18           	clc
  1323 00:D7A9: 69 04 00     	adc	#L65
  1324 00:D7AC: 1B           	tcs
  1325 00:D7AD: 98           	tya
  1326 00:D7AE: 60           	rts
  1327                        L10043:
  1328 00:D7AF: EE D0 7D     	inc	pc
  1329 00:D7B2: 82 DE FF     	brl	L10041
  1330             00000004   L65	equ	4
  1331             00000005   L66	equ	5
  1332                        
  1333                        skipAlpha:
  1334                        	longa	on
  1335                        	longi	on
  1336 00:D7B5: 3B           	tsc
  1337 00:D7B6: 38           	sec
  1338 00:D7B7: E9 06 00     	sbc	#L69
  1339 00:D7BA: 1B           	tcs
  1340 00:D7BB: 0B           	phd
  1341 00:D7BC: 5B           	tcd
  1342             00000000   x_1	set	0
  1343                        L10044:
  1344 00:D7BD: AD D0 7D     	lda	pc
  1345 00:D7C0: 85 01        	sta	<R0
  1346 00:D7C2: B2 01        	lda	(<R0)
  1347 00:D7C4: 29 FF 00     	and	#$ff
  1348 00:D7C7: 85 05        	sta	<L70+x_1
  1349 00:D7C9: 38           	sec
  1350 00:D7CA: A5 05        	lda	<L70+x_1
  1351 00:D7CC: E9 41 00     	sbc	#<$41
  1352 00:D7CF: 70 03        	bvs	L72
  1353 00:D7D1: 49 00 80     	eor	#$8000
  1354                        L72:
  1355 00:D7D4: 30 03        	bmi	L73
  1356 00:D7D6: 82 30 00     	brl	L71
  1357                        L73:
  1358 00:D7D9: 38           	sec
  1359 00:D7DA: A9 7A 00     	lda	#$7a
  1360 00:D7DD: E5 05        	sbc	<L70+x_1
  1361 00:D7DF: 70 03        	bvs	L74
  1362 00:D7E1: 49 00 80     	eor	#$8000
  1363                        L74:
  1364 00:D7E4: 30 03        	bmi	L75
  1365 00:D7E6: 82 20 00     	brl	L71
  1366                        L75:
  1367 00:D7E9: 38           	sec
  1368 00:D7EA: A9 5A 00     	lda	#$5a
  1369 00:D7ED: E5 05        	sbc	<L70+x_1
  1370 00:D7EF: 70 03        	bvs	L76
  1371 00:D7F1: 49 00 80     	eor	#$8000
  1372                        L76:
  1373 00:D7F4: 10 03        	bpl	L77
  1374 00:D7F6: 82 1C 00     	brl	L10046
  1375                        L77:
  1376 00:D7F9: 38           	sec
  1377 00:D7FA: A5 05        	lda	<L70+x_1
  1378 00:D7FC: E9 61 00     	sbc	#<$61
  1379 00:D7FF: 70 03        	bvs	L78
  1380 00:D801: 49 00 80     	eor	#$8000
  1381                        L78:
  1382 00:D804: 10 03        	bpl	L79
  1383 00:D806: 82 0C 00     	brl	L10046
  1384                        L79:
  1385                        L71:
  1386 00:D809: A5 05        	lda	<L70+x_1
  1387                        L80:
  1388 00:D80B: A8           	tay
  1389 00:D80C: 2B           	pld
  1390 00:D80D: 3B           	tsc
  1391 00:D80E: 18           	clc
  1392 00:D80F: 69 06 00     	adc	#L69
  1393 00:D812: 1B           	tcs
  1394 00:D813: 98           	tya
  1395 00:D814: 60           	rts
  1396                        L10046:
  1397 00:D815: EE D0 7D     	inc	pc
  1398 00:D818: 82 A2 FF     	brl	L10044
  1399             00000006   L69	equ	6
  1400             00000005   L70	equ	5
  1401                        
  1402                        exqt:
  1403                        	longa	on
  1404                        	longi	on
  1405 00:D81B: 3B           	tsc
  1406 00:D81C: 38           	sec
  1407 00:D81D: E9 00 00     	sbc	#L81
  1408 00:D820: 1B           	tcs
  1409 00:D821: 0B           	phd
  1410 00:D822: 5B           	tcd
  1411                        L10047:
  1412 00:D823: 20 8B D7     	jsr	skipBlank
  1413 00:D826: 20 DD D8     	jsr	do_cmd
  1414 00:D829: 82 F7 FF     	brl	L10047
  1415             00000000   L81	equ	0
  1416             00000001   L82	equ	1
  1417                        
  1418                        topOfLine:
  1419                        	longa	on
  1420                        	longi	on
  1421 00:D82C: 3B           	tsc
  1422 00:D82D: 38           	sec
  1423 00:D82E: E9 0C 00     	sbc	#L83
  1424 00:D831: 1B           	tcs
  1425 00:D832: 0B           	phd
  1426 00:D833: 5B           	tcd
  1427             00000000   x_1	set	0
  1428             00000002   c_1	set	2
  1429                        L10049:
  1430 00:D834: AD D0 7D     	lda	pc
  1431 00:D837: 85 01        	sta	<R0
  1432 00:D839: B2 01        	lda	(<R0)
  1433 00:D83B: 29 FF 00     	and	#$ff
  1434 00:D83E: 85 09        	sta	<L84+x_1
  1435                        ;	lda	<L84+x_1
  1436 00:D840: 29 80 00     	and	#<$80
  1437 00:D843: D0 03        	bne	L85
  1438 00:D845: 82 06 00     	brl	L10050
  1439                        L85:
  1440 00:D848: F4 00 00     	pea	#<$0
  1441 00:D84B: 20 6B E3     	jsr	w_boot
  1442                        L10050:
  1443 00:D84E: AD D0 7D     	lda	pc
  1444 00:D851: 85 01        	sta	<R0
  1445 00:D853: B2 01        	lda	(<R0)
  1446 00:D855: EB           	xba			; A(low) <-> A(high)
  1447 00:D856: 8D 04 7D     	sta	lno
  1448 00:D859: EE D0 7D     	inc	pc
  1449 00:D85C: EE D0 7D     	inc	pc
  1450 00:D85F: AD D0 7D     	lda	pc
  1451 00:D862: 85 01        	sta	<R0
  1452 00:D864: E2 20        	sep	#$20
  1453                        	longa	off
  1454 00:D866: B2 01        	lda	(<R0)
  1455 00:D868: C9 20        	cmp	#<$20
  1456 00:D86A: C2 20        	rep	#$20
  1457                        	longa	on
  1458 00:D86C: D0 03        	bne	L86
  1459 00:D86E: 82 0D 00     	brl	L10051
  1460                        L86:
  1461 00:D871: AD D0 7D     	lda	pc
  1462 00:D874: 48           	pha
  1463 00:D875: 20 59 D3     	jsr	skipLine
  1464 00:D878: 8D D0 7D     	sta	pc
  1465 00:D87B: 82 B6 FF     	brl	L10049
  1466                        L10051:
  1467                        L87:
  1468 00:D87E: A8           	tay
  1469 00:D87F: 2B           	pld
  1470 00:D880: 3B           	tsc
  1471 00:D881: 18           	clc
  1472 00:D882: 69 0C 00     	adc	#L83
  1473 00:D885: 1B           	tcs
  1474 00:D886: 98           	tya
  1475 00:D887: 60           	rts
  1476             0000000C   L83	equ	12
  1477             00000009   L84	equ	9
  1478                        
  1479                        bk_msg:
  1480 00:D888: 8A D8        	dw	L8+0
  1481                        
  1482                        L8:
  1483 00:D88A: 0D 0A 53 74  	db	$0D,$0A,$53,$74,$6F,$70,$21,$00
       00:D88E: 6F 70 21 00 
  1484                        
  1485                        breakCheck:
  1486                        	longa	on
  1487                        	longi	on
  1488 00:D892: 3B           	tsc
  1489 00:D893: 38           	sec
  1490 00:D894: E9 06 00     	sbc	#L89
  1491 00:D897: 1B           	tcs
  1492 00:D898: 0B           	phd
  1493 00:D899: 5B           	tcd
  1494             00000000   c_1	set	0
  1495 00:D89A: 20 23 D1     	jsr	c_kbhit
  1496 00:D89D: 29 FF 00     	and	#$ff
  1497 00:D8A0: D0 03        	bne	L91
  1498 00:D8A2: 82 2E 00     	brl	L10052
  1499                        L91:
  1500 00:D8A5: 20 20 D1     	jsr	c_getch
  1501 00:D8A8: E2 20        	sep	#$20
  1502                        	longa	off
  1503 00:D8AA: 85 01        	sta	<R0
  1504 00:D8AC: C2 20        	rep	#$20
  1505                        	longa	on
  1506 00:D8AE: A5 01        	lda	<R0
  1507 00:D8B0: 29 FF 00     	and	#$ff
  1508 00:D8B3: 85 05        	sta	<L90+c_1
  1509 00:D8B5: A5 05        	lda	<L90+c_1
  1510 00:D8B7: C9 03 00     	cmp	#<$3
  1511 00:D8BA: F0 03        	beq	L92
  1512 00:D8BC: 82 07 00     	brl	L10053
  1513                        L92:
  1514 00:D8BF: AD 88 D8     	lda	bk_msg
  1515 00:D8C2: 48           	pha
  1516 00:D8C3: 20 6B E3     	jsr	w_boot
  1517                        L10053:
  1518 00:D8C6: A5 05        	lda	<L90+c_1
  1519 00:D8C8: C9 13 00     	cmp	#<$13
  1520 00:D8CB: F0 03        	beq	L93
  1521 00:D8CD: 82 03 00     	brl	L10054
  1522                        L93:
  1523 00:D8D0: 20 20 D1     	jsr	c_getch
  1524                        L10054:
  1525                        L10052:
  1526                        L94:
  1527 00:D8D3: A8           	tay
  1528 00:D8D4: 2B           	pld
  1529 00:D8D5: 3B           	tsc
  1530 00:D8D6: 18           	clc
  1531 00:D8D7: 69 06 00     	adc	#L89
  1532 00:D8DA: 1B           	tcs
  1533 00:D8DB: 98           	tya
  1534 00:D8DC: 60           	rts
  1535             00000006   L89	equ	6
  1536             00000005   L90	equ	5
  1537                        
  1538                        do_cmd:
  1539                        	longa	on
  1540                        	longi	on
  1541 00:D8DD: 3B           	tsc
  1542 00:D8DE: 38           	sec
  1543 00:D8DF: E9 1A 00     	sbc	#L95
  1544 00:D8E2: 1B           	tcs
  1545 00:D8E3: 0B           	phd
  1546 00:D8E4: 5B           	tcd
  1547             00000000   c_1	set	0
  1548             00000002   c1_1	set	2
  1549             00000004   c2_1	set	4
  1550             00000006   e_1	set	6
  1551             00000008   vmode_1	set	8
  1552             0000000A   off_1	set	10
  1553             0000000C   tp_1	set	12
  1554 00:D8E5: 20 92 D8     	jsr	breakCheck
  1555 00:D8E8: AD D0 7D     	lda	pc
  1556 00:D8EB: 85 01        	sta	<R0
  1557 00:D8ED: B2 01        	lda	(<R0)
  1558 00:D8EF: 29 FF 00     	and	#$ff
  1559 00:D8F2: 85 0D        	sta	<L96+c_1
  1560 00:D8F4: EE D0 7D     	inc	pc
  1561 00:D8F7: AD D0 7D     	lda	pc
  1562 00:D8FA: 85 01        	sta	<R0
  1563 00:D8FC: B2 01        	lda	(<R0)
  1564 00:D8FE: 29 FF 00     	and	#$ff
  1565 00:D901: 85 0F        	sta	<L96+c1_1
  1566 00:D903: A5 0D        	lda	<L96+c_1
  1567 00:D905: 82 77 00     	brl	L10055
  1568                        L10057:
  1569 00:D908: 20 2C D8     	jsr	topOfLine
  1570 00:D90B: A9 01 00     	lda	#$1
  1571                        L97:
  1572 00:D90E: A8           	tay
  1573 00:D90F: 2B           	pld
  1574 00:D910: 3B           	tsc
  1575 00:D911: 18           	clc
  1576 00:D912: 69 1A 00     	adc	#L95
  1577 00:D915: 1B           	tcs
  1578 00:D916: 98           	tya
  1579 00:D917: 60           	rts
  1580                        L10058:
  1581 00:D918: 20 70 DD     	jsr	pop
  1582 00:D91B: 85 19        	sta	<L96+tp_1
  1583 00:D91D: A5 19        	lda	<L96+tp_1
  1584 00:D91F: 8D D0 7D     	sta	pc
  1585 00:D922: A9 00 00     	lda	#$0
  1586 00:D925: 82 E6 FF     	brl	L97
  1587                        L10059:
  1588 00:D928: 20 30 DD     	jsr	do_pr
  1589 00:D92B: A9 00 00     	lda	#$0
  1590 00:D92E: 82 DD FF     	brl	L97
  1591                        L10060:
  1592 00:D931: 20 43 E4     	jsr	newline
  1593 00:D934: A9 00 00     	lda	#$0
  1594 00:D937: 82 D4 FF     	brl	L97
  1595                        L10061:
  1596 00:D93A: A5 0F        	lda	<L96+c1_1
  1597 00:D93C: C9 3D 00     	cmp	#<$3d
  1598 00:D93F: F0 03        	beq	L98
  1599 00:D941: 82 21 00     	brl	L10062
  1600                        L98:
  1601 00:D944: AD D0 7D     	lda	pc
  1602 00:D947: 85 01        	sta	<R0
  1603 00:D949: A0 01 00     	ldy	#$1
  1604 00:D94C: B1 01        	lda	(<R0),Y
  1605 00:D94E: 29 FF 00     	and	#$ff
  1606 00:D951: 85 11        	sta	<L96+c2_1
  1607 00:D953: 20 EF DD     	jsr	operand
  1608 00:D956: 85 13        	sta	<L96+e_1
  1609 00:D958: D4 11        	pei	<L96+c2_1
  1610 00:D95A: D4 13        	pei	<L96+e_1
  1611 00:D95C: 20 45 DB     	jsr	do_until
  1612 00:D95F: A9 00 00     	lda	#$0
  1613 00:D962: 82 A9 FF     	brl	L97
  1614                        L10062:
  1615 00:D965: 20 AD DB     	jsr	do_do
  1616 00:D968: A9 00 00     	lda	#$0
  1617 00:D96B: 82 A0 FF     	brl	L97
  1618                        L10063:
  1619 00:D96E: D4 0F        	pei	<L96+c1_1
  1620 00:D970: 20 96 DC     	jsr	do_prNum
  1621 00:D973: A9 00 00     	lda	#$0
  1622 00:D976: 82 95 FF     	brl	L97
  1623                        L10064:
  1624 00:D979: 20 6D D1     	jsr	mach_fin
  1625 00:D97C: 82 23 00     	brl	L10056
  1626                        L10055:
  1627 00:D97F: 20 51 D2     	jsr	swt
  1628 00:D982: 07 00        	dw	7
  1629 00:D984: 00 00        	dw	0
  1630 00:D986: 07 D9        	dw	L10057-1
  1631 00:D988: 22 00        	dw	34
  1632 00:D98A: 27 D9        	dw	L10059-1
  1633 00:D98C: 2F 00        	dw	47
  1634 00:D98E: 30 D9        	dw	L10060-1
  1635 00:D990: 3F 00        	dw	63
  1636 00:D992: 6D D9        	dw	L10063-1
  1637 00:D994: 40 00        	dw	64
  1638 00:D996: 39 D9        	dw	L10061-1
  1639 00:D998: 5C 00        	dw	92
  1640 00:D99A: 78 D9        	dw	L10064-1
  1641 00:D99C: 5D 00        	dw	93
  1642 00:D99E: 17 D9        	dw	L10058-1
  1643 00:D9A0: A1 D9        	dw	L10056-1
  1644                        L10056:
  1645 00:D9A2: A5 0F        	lda	<L96+c1_1
  1646 00:D9A4: C9 3D 00     	cmp	#<$3d
  1647 00:D9A7: F0 03        	beq	L99
  1648 00:D9A9: 82 9D 00     	brl	L10065
  1649                        L99:
  1650 00:D9AC: A5 0D        	lda	<L96+c_1
  1651 00:D9AE: 82 75 00     	brl	L10066
  1652                        L10068:
  1653 00:D9B1: 20 EF DD     	jsr	operand
  1654 00:D9B4: 85 13        	sta	<L96+e_1
  1655 00:D9B6: D4 13        	pei	<L96+e_1
  1656 00:D9B8: 20 F6 DB     	jsr	do_goto
  1657 00:D9BB: A9 00 00     	lda	#$0
  1658 00:D9BE: 82 4D FF     	brl	L97
  1659                        L10069:
  1660 00:D9C1: 20 EF DD     	jsr	operand
  1661 00:D9C4: 85 13        	sta	<L96+e_1
  1662 00:D9C6: D4 13        	pei	<L96+e_1
  1663 00:D9C8: 20 2F DC     	jsr	do_gosub
  1664 00:D9CB: A9 00 00     	lda	#$0
  1665 00:D9CE: 82 3D FF     	brl	L97
  1666                        L10070:
  1667 00:D9D1: 20 EF DD     	jsr	operand
  1668 00:D9D4: 85 13        	sta	<L96+e_1
  1669 00:D9D6: D4 13        	pei	<L96+e_1
  1670 00:D9D8: 20 26 D1     	jsr	c_putch
  1671 00:D9DB: A9 00 00     	lda	#$0
  1672 00:D9DE: 82 2D FF     	brl	L97
  1673                        L10071:
  1674 00:D9E1: 20 EF DD     	jsr	operand
  1675 00:D9E4: 85 13        	sta	<L96+e_1
  1676 00:D9E6: D4 13        	pei	<L96+e_1
  1677 00:D9E8: 20 61 DC     	jsr	do_prSpc
  1678 00:D9EB: A9 00 00     	lda	#$0
  1679 00:D9EE: 82 1D FF     	brl	L97
  1680                        L10072:
  1681 00:D9F1: 20 EF DD     	jsr	operand
  1682 00:D9F4: 85 13        	sta	<L96+e_1
  1683 00:D9F6: D4 13        	pei	<L96+e_1
  1684 00:D9F8: 20 CC DB     	jsr	do_if
  1685 00:D9FB: A9 00 00     	lda	#$0
  1686 00:D9FE: 82 0D FF     	brl	L97
  1687                        L10073:
  1688 00:DA01: 20 EF DD     	jsr	operand
  1689 00:DA04: 85 13        	sta	<L96+e_1
  1690 00:DA06: D4 13        	pei	<L96+e_1
  1691 00:DA08: 20 53 D1     	jsr	srand
  1692 00:DA0B: A9 00 00     	lda	#$0
  1693 00:DA0E: 82 FD FE     	brl	L97
  1694                        L10074:
  1695 00:DA11: 20 EF DD     	jsr	operand
  1696 00:DA14: 85 13        	sta	<L96+e_1
  1697 00:DA16: A5 13        	lda	<L96+e_1
  1698 00:DA18: F0 03        	beq	L100
  1699 00:DA1A: 82 03 00     	brl	L10075
  1700                        L100:
  1701 00:DA1D: 20 F1 E7     	jsr	newText
  1702                        L10075:
  1703 00:DA20: A9 00 00     	lda	#$0
  1704 00:DA23: 82 E8 FE     	brl	L97
  1705                        L10066:
  1706 00:DA26: 20 51 D2     	jsr	swt
  1707 00:DA29: 07 00        	dw	7
  1708 00:DA2B: 21 00        	dw	33
  1709 00:DA2D: C0 D9        	dw	L10069-1
  1710 00:DA2F: 23 00        	dw	35
  1711 00:DA31: B0 D9        	dw	L10068-1
  1712 00:DA33: 24 00        	dw	36
  1713 00:DA35: D0 D9        	dw	L10070-1
  1714 00:DA37: 26 00        	dw	38
  1715 00:DA39: 10 DA        	dw	L10074-1
  1716 00:DA3B: 27 00        	dw	39
  1717 00:DA3D: 00 DA        	dw	L10073-1
  1718 00:DA3F: 2E 00        	dw	46
  1719 00:DA41: E0 D9        	dw	L10071-1
  1720 00:DA43: 3B 00        	dw	59
  1721 00:DA45: F0 D9        	dw	L10072-1
  1722 00:DA47: 48 DA        	dw	L10067-1
  1723                        L10067:
  1724                        L10065:
  1725 00:DA49: 20 B5 D7     	jsr	skipAlpha
  1726 00:DA4C: 85 15        	sta	<L96+vmode_1
  1727 00:DA4E: A5 15        	lda	<L96+vmode_1
  1728 00:DA50: C9 3A 00     	cmp	#<$3a
  1729 00:DA53: D0 03        	bne	L102
  1730 00:DA55: 82 0A 00     	brl	L101
  1731                        L102:
  1732 00:DA58: A5 15        	lda	<L96+vmode_1
  1733 00:DA5A: C9 28 00     	cmp	#<$28
  1734 00:DA5D: F0 03        	beq	L103
  1735 00:DA5F: 82 8D 00     	brl	L10076
  1736                        L103:
  1737                        L101:
  1738 00:DA62: EE D0 7D     	inc	pc
  1739 00:DA65: AD D0 7D     	lda	pc
  1740 00:DA68: 85 01        	sta	<R0
  1741 00:DA6A: EE D0 7D     	inc	pc
  1742 00:DA6D: B2 01        	lda	(<R0)
  1743 00:DA6F: 29 FF 00     	and	#$ff
  1744 00:DA72: 48           	pha
  1745 00:DA73: 20 48 DE     	jsr	expr
  1746 00:DA76: 85 17        	sta	<L96+off_1
  1747 00:DA78: 18           	clc
  1748 00:DA79: A9 FF FF     	lda	#$ffff
  1749 00:DA7C: 6D D0 7D     	adc	pc
  1750 00:DA7F: 85 01        	sta	<R0
  1751 00:DA81: E2 20        	sep	#$20
  1752                        	longa	off
  1753 00:DA83: B2 01        	lda	(<R0)
  1754 00:DA85: C9 29        	cmp	#<$29
  1755 00:DA87: C2 20        	rep	#$20
  1756                        	longa	on
  1757 00:DA89: D0 03        	bne	L104
  1758 00:DA8B: 82 06 00     	brl	L10077
  1759                        L104:
  1760 00:DA8E: F4 43 DB     	pea	#<L88
  1761 00:DA91: 20 93 E3     	jsr	er_boot
  1762                        L10077:
  1763 00:DA94: 20 EF DD     	jsr	operand
  1764 00:DA97: 85 13        	sta	<L96+e_1
  1765 00:DA99: A5 15        	lda	<L96+vmode_1
  1766 00:DA9B: C9 3A 00     	cmp	#<$3a
  1767 00:DA9E: F0 03        	beq	L105
  1768 00:DAA0: 82 1F 00     	brl	L10078
  1769                        L105:
  1770 00:DAA3: A5 0D        	lda	<L96+c_1
  1771 00:DAA5: 0A           	asl	A
  1772 00:DAA6: 85 01        	sta	<R0
  1773 00:DAA8: 18           	clc
  1774 00:DAA9: A9 04 7C     	lda	#<var
  1775 00:DAAC: 65 01        	adc	<R0
  1776 00:DAAE: 85 05        	sta	<R1
  1777 00:DAB0: 18           	clc
  1778 00:DAB1: B2 05        	lda	(<R1)
  1779 00:DAB3: 65 17        	adc	<L96+off_1
  1780 00:DAB5: 85 01        	sta	<R0
  1781 00:DAB7: E2 20        	sep	#$20
  1782                        	longa	off
  1783 00:DAB9: A5 13        	lda	<L96+e_1
  1784 00:DABB: 92 01        	sta	(<R0)
  1785 00:DABD: C2 20        	rep	#$20
  1786                        	longa	on
  1787 00:DABF: 82 27 00     	brl	L10079
  1788                        L10078:
  1789 00:DAC2: A5 15        	lda	<L96+vmode_1
  1790 00:DAC4: C9 28 00     	cmp	#<$28
  1791 00:DAC7: F0 03        	beq	L106
  1792 00:DAC9: 82 1D 00     	brl	L10080
  1793                        L106:
  1794 00:DACC: A5 0D        	lda	<L96+c_1
  1795 00:DACE: 0A           	asl	A
  1796 00:DACF: 85 01        	sta	<R0
  1797 00:DAD1: 18           	clc
  1798 00:DAD2: A9 04 7C     	lda	#<var
  1799 00:DAD5: 65 01        	adc	<R0
  1800 00:DAD7: 85 05        	sta	<R1
  1801 00:DAD9: A5 17        	lda	<L96+off_1
  1802 00:DADB: 0A           	asl	A
  1803 00:DADC: 85 01        	sta	<R0
  1804 00:DADE: 18           	clc
  1805 00:DADF: B2 05        	lda	(<R1)
  1806 00:DAE1: 65 01        	adc	<R0
  1807 00:DAE3: 85 09        	sta	<R2
  1808 00:DAE5: A5 13        	lda	<L96+e_1
  1809 00:DAE7: 92 09        	sta	(<R2)
  1810                        L10080:
  1811                        L10079:
  1812 00:DAE9: A9 00 00     	lda	#$0
  1813 00:DAEC: 82 1F FE     	brl	L97
  1814                        L10076:
  1815 00:DAEF: 20 EF DD     	jsr	operand
  1816 00:DAF2: 85 13        	sta	<L96+e_1
  1817 00:DAF4: A5 0D        	lda	<L96+c_1
  1818 00:DAF6: 0A           	asl	A
  1819 00:DAF7: 85 01        	sta	<R0
  1820 00:DAF9: 18           	clc
  1821 00:DAFA: A9 04 7C     	lda	#<var
  1822 00:DAFD: 65 01        	adc	<R0
  1823 00:DAFF: 85 05        	sta	<R1
  1824 00:DB01: A5 13        	lda	<L96+e_1
  1825 00:DB03: 92 05        	sta	(<R1)
  1826 00:DB05: 18           	clc
  1827 00:DB06: A9 FF FF     	lda	#$ffff
  1828 00:DB09: 6D D0 7D     	adc	pc
  1829 00:DB0C: 85 01        	sta	<R0
  1830 00:DB0E: E2 20        	sep	#$20
  1831                        	longa	off
  1832 00:DB10: B2 01        	lda	(<R0)
  1833 00:DB12: C9 2C        	cmp	#<$2c
  1834 00:DB14: C2 20        	rep	#$20
  1835                        	longa	on
  1836 00:DB16: F0 03        	beq	L107
  1837 00:DB18: 82 22 00     	brl	L10081
  1838                        L107:
  1839 00:DB1B: AD D0 7D     	lda	pc
  1840 00:DB1E: 85 01        	sta	<R0
  1841 00:DB20: B2 01        	lda	(<R0)
  1842 00:DB22: 29 FF 00     	and	#$ff
  1843 00:DB25: 85 0D        	sta	<L96+c_1
  1844 00:DB27: EE D0 7D     	inc	pc
  1845 00:DB2A: D4 0D        	pei	<L96+c_1
  1846 00:DB2C: 20 48 DE     	jsr	expr
  1847 00:DB2F: 85 13        	sta	<L96+e_1
  1848 00:DB31: AD D0 7D     	lda	pc
  1849 00:DB34: 48           	pha
  1850 00:DB35: 20 A9 DD     	jsr	push
  1851 00:DB38: D4 13        	pei	<L96+e_1
  1852 00:DB3A: 20 A9 DD     	jsr	push
  1853                        L10081:
  1854 00:DB3D: A9 00 00     	lda	#$0
  1855 00:DB40: 82 CB FD     	brl	L97
  1856             0000001A   L95	equ	26
  1857             0000000D   L96	equ	13
  1858                        
  1859                        L88:
  1860 00:DB43: 32 00        	db	$32,$00
  1861                        
  1862                        do_until:
  1863                        	longa	on
  1864                        	longi	on
  1865 00:DB45: 3B           	tsc
  1866 00:DB46: 38           	sec
  1867 00:DB47: E9 0C 00     	sbc	#L109
  1868 00:DB4A: 1B           	tcs
  1869 00:DB4B: 0B           	phd
  1870 00:DB4C: 5B           	tcd
  1871             00000003   e_0	set	3
  1872             00000005   val_0	set	5
  1873 00:DB4D: A5 11        	lda	<L109+val_0
  1874 00:DB4F: 0A           	asl	A
  1875 00:DB50: 85 01        	sta	<R0
  1876 00:DB52: 18           	clc
  1877 00:DB53: A9 04 7C     	lda	#<var
  1878 00:DB56: 65 01        	adc	<R0
  1879 00:DB58: 85 05        	sta	<R1
  1880 00:DB5A: A5 0F        	lda	<L109+e_0
  1881 00:DB5C: 92 05        	sta	(<R1)
  1882 00:DB5E: AD CE 7D     	lda	sp
  1883 00:DB61: 0A           	asl	A
  1884 00:DB62: 85 01        	sta	<R0
  1885 00:DB64: 18           	clc
  1886 00:DB65: A9 06 7D     	lda	#<stack
  1887 00:DB68: 65 01        	adc	<R0
  1888 00:DB6A: 85 05        	sta	<R1
  1889 00:DB6C: 38           	sec
  1890 00:DB6D: B2 05        	lda	(<R1)
  1891 00:DB6F: E5 0F        	sbc	<L109+e_0
  1892 00:DB71: 70 03        	bvs	L111
  1893 00:DB73: 49 00 80     	eor	#$8000
  1894                        L111:
  1895 00:DB76: 10 03        	bpl	L112
  1896 00:DB78: 82 14 00     	brl	L10082
  1897                        L112:
  1898 00:DB7B: CE CE 7D     	dec	sp
  1899 00:DB7E: CE CE 7D     	dec	sp
  1900                        L113:
  1901 00:DB81: A8           	tay
  1902 00:DB82: A5 0D        	lda	<L109+1
  1903 00:DB84: 85 11        	sta	<L109+1+4
  1904 00:DB86: 2B           	pld
  1905 00:DB87: 3B           	tsc
  1906 00:DB88: 18           	clc
  1907 00:DB89: 69 10 00     	adc	#L109+4
  1908 00:DB8C: 1B           	tcs
  1909 00:DB8D: 98           	tya
  1910 00:DB8E: 60           	rts
  1911                        L10082:
  1912 00:DB8F: AD CE 7D     	lda	sp
  1913 00:DB92: 0A           	asl	A
  1914 00:DB93: 85 01        	sta	<R0
  1915 00:DB95: 18           	clc
  1916 00:DB96: A9 FE FF     	lda	#$fffe
  1917 00:DB99: 69 06 7D     	adc	#<stack
  1918 00:DB9C: 85 05        	sta	<R1
  1919 00:DB9E: 18           	clc
  1920 00:DB9F: A5 05        	lda	<R1
  1921 00:DBA1: 65 01        	adc	<R0
  1922 00:DBA3: 85 09        	sta	<R2
  1923 00:DBA5: B2 09        	lda	(<R2)
  1924 00:DBA7: 8D D0 7D     	sta	pc
  1925 00:DBAA: 82 D4 FF     	brl	L113
  1926             0000000C   L109	equ	12
  1927             0000000D   L110	equ	13
  1928                        
  1929                        do_do:
  1930                        	longa	on
  1931                        	longi	on
  1932 00:DBAD: 3B           	tsc
  1933 00:DBAE: 38           	sec
  1934 00:DBAF: E9 00 00     	sbc	#L114
  1935 00:DBB2: 1B           	tcs
  1936 00:DBB3: 0B           	phd
  1937 00:DBB4: 5B           	tcd
  1938 00:DBB5: AD D0 7D     	lda	pc
  1939 00:DBB8: 48           	pha
  1940 00:DBB9: 20 A9 DD     	jsr	push
  1941 00:DBBC: F4 00 00     	pea	#<$0
  1942 00:DBBF: 20 A9 DD     	jsr	push
  1943                        L116:
  1944 00:DBC2: A8           	tay
  1945 00:DBC3: 2B           	pld
  1946 00:DBC4: 3B           	tsc
  1947 00:DBC5: 18           	clc
  1948 00:DBC6: 69 00 00     	adc	#L114
  1949 00:DBC9: 1B           	tcs
  1950 00:DBCA: 98           	tya
  1951 00:DBCB: 60           	rts
  1952             00000000   L114	equ	0
  1953             00000001   L115	equ	1
  1954                        
  1955                        do_if:
  1956                        	longa	on
  1957                        	longi	on
  1958 00:DBCC: 3B           	tsc
  1959 00:DBCD: 38           	sec
  1960 00:DBCE: E9 00 00     	sbc	#L117
  1961 00:DBD1: 1B           	tcs
  1962 00:DBD2: 0B           	phd
  1963 00:DBD3: 5B           	tcd
  1964             00000003   e_0	set	3
  1965 00:DBD4: A5 03        	lda	<L117+e_0
  1966 00:DBD6: F0 03        	beq	L119
  1967 00:DBD8: 82 0D 00     	brl	L10083
  1968                        L119:
  1969 00:DBDB: AD D0 7D     	lda	pc
  1970 00:DBDE: 48           	pha
  1971 00:DBDF: 20 59 D3     	jsr	skipLine
  1972 00:DBE2: 8D D0 7D     	sta	pc
  1973 00:DBE5: 20 2C D8     	jsr	topOfLine
  1974                        L10083:
  1975                        L120:
  1976 00:DBE8: A8           	tay
  1977 00:DBE9: A5 01        	lda	<L117+1
  1978 00:DBEB: 85 03        	sta	<L117+1+2
  1979 00:DBED: 2B           	pld
  1980 00:DBEE: 3B           	tsc
  1981 00:DBEF: 18           	clc
  1982 00:DBF0: 69 02 00     	adc	#L117+2
  1983 00:DBF3: 1B           	tcs
  1984 00:DBF4: 98           	tya
  1985 00:DBF5: 60           	rts
  1986             00000000   L117	equ	0
  1987             00000001   L118	equ	1
  1988                        
  1989                        do_goto:
  1990                        	longa	on
  1991                        	longi	on
  1992 00:DBF6: 3B           	tsc
  1993 00:DBF7: 38           	sec
  1994 00:DBF8: E9 04 00     	sbc	#L121
  1995 00:DBFB: 1B           	tcs
  1996 00:DBFC: 0B           	phd
  1997 00:DBFD: 5B           	tcd
  1998             00000003   n_0	set	3
  1999             00000000   f_1	set	0
  2000             00000002   p_1	set	2
  2001 00:DBFE: A5 07        	lda	<L121+n_0
  2002 00:DC00: C9 FF FF     	cmp	#<$ffffffff
  2003 00:DC03: F0 03        	beq	L123
  2004 00:DC05: 82 06 00     	brl	L10084
  2005                        L123:
  2006 00:DC08: F4 00 00     	pea	#<$0
  2007 00:DC0B: 20 6B E3     	jsr	w_boot
  2008                        L10084:
  2009 00:DC0E: 18           	clc
  2010 00:DC0F: 7B           	tdc
  2011 00:DC10: 69 01 00     	adc	#<L122+f_1
  2012 00:DC13: 48           	pha
  2013 00:DC14: D4 07        	pei	<L121+n_0
  2014 00:DC16: 20 85 D3     	jsr	searchLine
  2015 00:DC19: 85 03        	sta	<L122+p_1
  2016                        ;	lda	<L122+p_1
  2017 00:DC1B: 8D D0 7D     	sta	pc
  2018 00:DC1E: 20 2C D8     	jsr	topOfLine
  2019                        L124:
  2020 00:DC21: A8           	tay
  2021 00:DC22: A5 05        	lda	<L121+1
  2022 00:DC24: 85 07        	sta	<L121+1+2
  2023 00:DC26: 2B           	pld
  2024 00:DC27: 3B           	tsc
  2025 00:DC28: 18           	clc
  2026 00:DC29: 69 06 00     	adc	#L121+2
  2027 00:DC2C: 1B           	tcs
  2028 00:DC2D: 98           	tya
  2029 00:DC2E: 60           	rts
  2030             00000004   L121	equ	4
  2031             00000001   L122	equ	1
  2032                        
  2033                        do_gosub:
  2034                        	longa	on
  2035                        	longi	on
  2036 00:DC2F: 3B           	tsc
  2037 00:DC30: 38           	sec
  2038 00:DC31: E9 04 00     	sbc	#L125
  2039 00:DC34: 1B           	tcs
  2040 00:DC35: 0B           	phd
  2041 00:DC36: 5B           	tcd
  2042             00000003   n_0	set	3
  2043             00000000   f_1	set	0
  2044             00000002   p_1	set	2
  2045 00:DC37: 18           	clc
  2046 00:DC38: 7B           	tdc
  2047 00:DC39: 69 01 00     	adc	#<L126+f_1
  2048 00:DC3C: 48           	pha
  2049 00:DC3D: D4 07        	pei	<L125+n_0
  2050 00:DC3F: 20 85 D3     	jsr	searchLine
  2051 00:DC42: 85 03        	sta	<L126+p_1
  2052 00:DC44: AD D0 7D     	lda	pc
  2053 00:DC47: 48           	pha
  2054 00:DC48: 20 A9 DD     	jsr	push
  2055 00:DC4B: A5 03        	lda	<L126+p_1
  2056 00:DC4D: 8D D0 7D     	sta	pc
  2057 00:DC50: 20 2C D8     	jsr	topOfLine
  2058                        L127:
  2059 00:DC53: A8           	tay
  2060 00:DC54: A5 05        	lda	<L125+1
  2061 00:DC56: 85 07        	sta	<L125+1+2
  2062 00:DC58: 2B           	pld
  2063 00:DC59: 3B           	tsc
  2064 00:DC5A: 18           	clc
  2065 00:DC5B: 69 06 00     	adc	#L125+2
  2066 00:DC5E: 1B           	tcs
  2067 00:DC5F: 98           	tya
  2068 00:DC60: 60           	rts
  2069             00000004   L125	equ	4
  2070             00000001   L126	equ	1
  2071                        
  2072                        do_prSpc:
  2073                        	longa	on
  2074                        	longi	on
  2075 00:DC61: 3B           	tsc
  2076 00:DC62: 38           	sec
  2077 00:DC63: E9 02 00     	sbc	#L128
  2078 00:DC66: 1B           	tcs
  2079 00:DC67: 0B           	phd
  2080 00:DC68: 5B           	tcd
  2081             00000003   e_0	set	3
  2082             00000000   i_1	set	0
  2083 00:DC69: 64 01        	stz	<L129+i_1
  2084 00:DC6B: 82 02 00     	brl	L10086
  2085                        L10085:
  2086 00:DC6E: E6 01        	inc	<L129+i_1
  2087                        L10086:
  2088 00:DC70: 38           	sec
  2089 00:DC71: A5 01        	lda	<L129+i_1
  2090 00:DC73: E5 05        	sbc	<L128+e_0
  2091 00:DC75: 70 03        	bvs	L130
  2092 00:DC77: 49 00 80     	eor	#$8000
  2093                        L130:
  2094 00:DC7A: 10 03        	bpl	L131
  2095 00:DC7C: 82 09 00     	brl	L10087
  2096                        L131:
  2097 00:DC7F: F4 20 00     	pea	#<$20
  2098 00:DC82: 20 26 D1     	jsr	c_putch
  2099 00:DC85: 82 E6 FF     	brl	L10085
  2100                        L10087:
  2101                        L132:
  2102 00:DC88: A8           	tay
  2103 00:DC89: A5 03        	lda	<L128+1
  2104 00:DC8B: 85 05        	sta	<L128+1+2
  2105 00:DC8D: 2B           	pld
  2106 00:DC8E: 3B           	tsc
  2107 00:DC8F: 18           	clc
  2108 00:DC90: 69 04 00     	adc	#L128+2
  2109 00:DC93: 1B           	tcs
  2110 00:DC94: 98           	tya
  2111 00:DC95: 60           	rts
  2112             00000002   L128	equ	2
  2113             00000001   L129	equ	1
  2114                        
  2115                        do_prNum:
  2116                        	longa	on
  2117                        	longi	on
  2118 00:DC96: 3B           	tsc
  2119 00:DC97: 38           	sec
  2120 00:DC98: E9 04 00     	sbc	#L133
  2121 00:DC9B: 1B           	tcs
  2122 00:DC9C: 0B           	phd
  2123 00:DC9D: 5B           	tcd
  2124             00000003   c1_0	set	3
  2125             00000000   e_1	set	0
  2126             00000002   digit_1	set	2
  2127 00:DC9E: A5 07        	lda	<L133+c1_0
  2128 00:DCA0: C9 28 00     	cmp	#<$28
  2129 00:DCA3: F0 03        	beq	L135
  2130 00:DCA5: 82 2D 00     	brl	L10088
  2131                        L135:
  2132 00:DCA8: EE D0 7D     	inc	pc
  2133 00:DCAB: D4 07        	pei	<L133+c1_0
  2134 00:DCAD: 20 87 E0     	jsr	term
  2135 00:DCB0: 85 03        	sta	<L134+digit_1
  2136 00:DCB2: 20 EF DD     	jsr	operand
  2137 00:DCB5: 85 01        	sta	<L134+e_1
  2138 00:DCB7: D4 03        	pei	<L134+digit_1
  2139 00:DCB9: D4 01        	pei	<L134+e_1
  2140 00:DCBB: F4 D2 7D     	pea	#<lky_buf
  2141 00:DCBE: 20 97 D5     	jsr	mk_dStr
  2142 00:DCC1: F4 D2 7D     	pea	#<lky_buf
  2143 00:DCC4: 20 6D D2     	jsr	c_puts
  2144                        L136:
  2145 00:DCC7: A8           	tay
  2146 00:DCC8: A5 05        	lda	<L133+1
  2147 00:DCCA: 85 07        	sta	<L133+1+2
  2148 00:DCCC: 2B           	pld
  2149 00:DCCD: 3B           	tsc
  2150 00:DCCE: 18           	clc
  2151 00:DCCF: 69 06 00     	adc	#L133+2
  2152 00:DCD2: 1B           	tcs
  2153 00:DCD3: 98           	tya
  2154 00:DCD4: 60           	rts
  2155                        L10088:
  2156 00:DCD5: 20 EF DD     	jsr	operand
  2157 00:DCD8: 85 01        	sta	<L134+e_1
  2158 00:DCDA: A5 07        	lda	<L133+c1_0
  2159 00:DCDC: 82 33 00     	brl	L10089
  2160                        L10091:
  2161 00:DCDF: F4 04 00     	pea	#<$4
  2162 00:DCE2: D4 01        	pei	<L134+e_1
  2163 00:DCE4: F4 D2 7D     	pea	#<lky_buf
  2164 00:DCE7: 20 63 D6     	jsr	g_hexStr
  2165 00:DCEA: 82 38 00     	brl	L10090
  2166                        L10092:
  2167 00:DCED: F4 02 00     	pea	#<$2
  2168 00:DCF0: D4 01        	pei	<L134+e_1
  2169 00:DCF2: F4 D2 7D     	pea	#<lky_buf
  2170 00:DCF5: 20 63 D6     	jsr	g_hexStr
  2171 00:DCF8: 82 2A 00     	brl	L10090
  2172                        L10093:
  2173 00:DCFB: F4 01 00     	pea	#<$1
  2174 00:DCFE: D4 01        	pei	<L134+e_1
  2175 00:DD00: F4 D2 7D     	pea	#<lky_buf
  2176 00:DD03: 20 97 D5     	jsr	mk_dStr
  2177 00:DD06: 82 1C 00     	brl	L10090
  2178                        L10094:
  2179 00:DD09: F4 2E DD     	pea	#<L108
  2180 00:DD0C: 20 93 E3     	jsr	er_boot
  2181 00:DD0F: 82 13 00     	brl	L10090
  2182                        L10089:
  2183 00:DD12: 20 51 D2     	jsr	swt
  2184 00:DD15: 03 00        	dw	3
  2185 00:DD17: 24 00        	dw	36
  2186 00:DD19: EC DC        	dw	L10092-1
  2187 00:DD1B: 3D 00        	dw	61
  2188 00:DD1D: FA DC        	dw	L10093-1
  2189 00:DD1F: 3F 00        	dw	63
  2190 00:DD21: DE DC        	dw	L10091-1
  2191 00:DD23: 08 DD        	dw	L10094-1
  2192                        L10090:
  2193 00:DD25: F4 D2 7D     	pea	#<lky_buf
  2194 00:DD28: 20 6D D2     	jsr	c_puts
  2195 00:DD2B: 82 99 FF     	brl	L136
  2196             00000004   L133	equ	4
  2197             00000001   L134	equ	1
  2198                        
  2199                        L108:
  2200 00:DD2E: 33 00        	db	$33,$00
  2201                        
  2202                        do_pr:
  2203                        	longa	on
  2204                        	longi	on
  2205 00:DD30: 3B           	tsc
  2206 00:DD31: 38           	sec
  2207 00:DD32: E9 06 00     	sbc	#L138
  2208 00:DD35: 1B           	tcs
  2209 00:DD36: 0B           	phd
  2210 00:DD37: 5B           	tcd
  2211             00000000   x_1	set	0
  2212                        L10095:
  2213 00:DD38: AD D0 7D     	lda	pc
  2214 00:DD3B: 85 01        	sta	<R0
  2215 00:DD3D: EE D0 7D     	inc	pc
  2216 00:DD40: B2 01        	lda	(<R0)
  2217 00:DD42: 29 FF 00     	and	#$ff
  2218 00:DD45: 85 05        	sta	<L139+x_1
  2219 00:DD47: A5 05        	lda	<L139+x_1
  2220 00:DD49: C9 22 00     	cmp	#<$22
  2221 00:DD4C: D0 03        	bne	L140
  2222 00:DD4E: 82 15 00     	brl	L10096
  2223                        L140:
  2224 00:DD51: A5 05        	lda	<L139+x_1
  2225 00:DD53: F0 03        	beq	L141
  2226 00:DD55: 82 06 00     	brl	L10097
  2227                        L141:
  2228 00:DD58: CE D0 7D     	dec	pc
  2229 00:DD5B: 82 08 00     	brl	L10096
  2230                        L10097:
  2231 00:DD5E: D4 05        	pei	<L139+x_1
  2232 00:DD60: 20 26 D1     	jsr	c_putch
  2233 00:DD63: 82 D2 FF     	brl	L10095
  2234                        L10096:
  2235                        L142:
  2236 00:DD66: A8           	tay
  2237 00:DD67: 2B           	pld
  2238 00:DD68: 3B           	tsc
  2239 00:DD69: 18           	clc
  2240 00:DD6A: 69 06 00     	adc	#L138
  2241 00:DD6D: 1B           	tcs
  2242 00:DD6E: 98           	tya
  2243 00:DD6F: 60           	rts
  2244             00000006   L138	equ	6
  2245             00000005   L139	equ	5
  2246                        
  2247                        pop:
  2248                        	longa	on
  2249                        	longi	on
  2250 00:DD70: 3B           	tsc
  2251 00:DD71: 38           	sec
  2252 00:DD72: E9 08 00     	sbc	#L143
  2253 00:DD75: 1B           	tcs
  2254 00:DD76: 0B           	phd
  2255 00:DD77: 5B           	tcd
  2256 00:DD78: AD CE 7D     	lda	sp
  2257 00:DD7B: 30 03        	bmi	L145
  2258 00:DD7D: 82 06 00     	brl	L10098
  2259                        L145:
  2260 00:DD80: F4 A7 DD     	pea	#<L137
  2261 00:DD83: 20 93 E3     	jsr	er_boot
  2262                        L10098:
  2263 00:DD86: AD CE 7D     	lda	sp
  2264 00:DD89: 85 05        	sta	<R1
  2265 00:DD8B: CE CE 7D     	dec	sp
  2266 00:DD8E: A5 05        	lda	<R1
  2267 00:DD90: 0A           	asl	A
  2268 00:DD91: 85 01        	sta	<R0
  2269 00:DD93: 18           	clc
  2270 00:DD94: A9 06 7D     	lda	#<stack
  2271 00:DD97: 65 01        	adc	<R0
  2272 00:DD99: 85 05        	sta	<R1
  2273 00:DD9B: B2 05        	lda	(<R1)
  2274                        L146:
  2275 00:DD9D: A8           	tay
  2276 00:DD9E: 2B           	pld
  2277 00:DD9F: 3B           	tsc
  2278 00:DDA0: 18           	clc
  2279 00:DDA1: 69 08 00     	adc	#L143
  2280 00:DDA4: 1B           	tcs
  2281 00:DDA5: 98           	tya
  2282 00:DDA6: 60           	rts
  2283             00000008   L143	equ	8
  2284             00000009   L144	equ	9
  2285                        
  2286                        L137:
  2287 00:DDA7: 34 00        	db	$34,$00
  2288                        
  2289                        push:
  2290                        	longa	on
  2291                        	longi	on
  2292 00:DDA9: 3B           	tsc
  2293 00:DDAA: 38           	sec
  2294 00:DDAB: E9 08 00     	sbc	#L148
  2295 00:DDAE: 1B           	tcs
  2296 00:DDAF: 0B           	phd
  2297 00:DDB0: 5B           	tcd
  2298             00000003   x_0	set	3
  2299 00:DDB1: 38           	sec
  2300 00:DDB2: AD CE 7D     	lda	sp
  2301 00:DDB5: E9 63 00     	sbc	#<$63
  2302 00:DDB8: 70 03        	bvs	L150
  2303 00:DDBA: 49 00 80     	eor	#$8000
  2304                        L150:
  2305 00:DDBD: 30 03        	bmi	L151
  2306 00:DDBF: 82 06 00     	brl	L10099
  2307                        L151:
  2308 00:DDC2: F4 ED DD     	pea	#<L147
  2309 00:DDC5: 20 93 E3     	jsr	er_boot
  2310                        L10099:
  2311 00:DDC8: EE CE 7D     	inc	sp
  2312 00:DDCB: AD CE 7D     	lda	sp
  2313 00:DDCE: 0A           	asl	A
  2314 00:DDCF: 85 01        	sta	<R0
  2315 00:DDD1: 18           	clc
  2316 00:DDD2: A9 06 7D     	lda	#<stack
  2317 00:DDD5: 65 01        	adc	<R0
  2318 00:DDD7: 85 05        	sta	<R1
  2319 00:DDD9: A5 0B        	lda	<L148+x_0
  2320 00:DDDB: 92 05        	sta	(<R1)
  2321 00:DDDD: A5 0B        	lda	<L148+x_0
  2322                        L152:
  2323 00:DDDF: A8           	tay
  2324 00:DDE0: A5 09        	lda	<L148+1
  2325 00:DDE2: 85 0B        	sta	<L148+1+2
  2326 00:DDE4: 2B           	pld
  2327 00:DDE5: 3B           	tsc
  2328 00:DDE6: 18           	clc
  2329 00:DDE7: 69 0A 00     	adc	#L148+2
  2330 00:DDEA: 1B           	tcs
  2331 00:DDEB: 98           	tya
  2332 00:DDEC: 60           	rts
  2333             00000008   L148	equ	8
  2334             00000009   L149	equ	9
  2335                        
  2336                        L147:
  2337 00:DDED: 35 00        	db	$35,$00
  2338                        
  2339                        operand:
  2340                        	longa	on
  2341                        	longi	on
  2342 00:DDEF: 3B           	tsc
  2343 00:DDF0: 38           	sec
  2344 00:DDF1: E9 08 00     	sbc	#L154
  2345 00:DDF4: 1B           	tcs
  2346 00:DDF5: 0B           	phd
  2347 00:DDF6: 5B           	tcd
  2348             00000000   x_1	set	0
  2349             00000002   e_1	set	2
  2350                        L10100:
  2351 00:DDF7: AD D0 7D     	lda	pc
  2352 00:DDFA: 85 01        	sta	<R0
  2353 00:DDFC: B2 01        	lda	(<R0)
  2354 00:DDFE: 29 FF 00     	and	#$ff
  2355 00:DE01: 85 05        	sta	<L155+x_1
  2356 00:DE03: EE D0 7D     	inc	pc
  2357 00:DE06: A5 05        	lda	<L155+x_1
  2358 00:DE08: C9 3D 00     	cmp	#<$3d
  2359 00:DE0B: D0 03        	bne	L156
  2360 00:DE0D: 82 13 00     	brl	L10101
  2361                        L156:
  2362 00:DE10: A5 05        	lda	<L155+x_1
  2363 00:DE12: 29 DF 00     	and	#<$df
  2364 00:DE15: F0 03        	beq	L157
  2365 00:DE17: 82 06 00     	brl	L10102
  2366                        L157:
  2367 00:DE1A: F4 45 DE     	pea	#<L153
  2368 00:DE1D: 20 12 E3     	jsr	errMsg
  2369                        L10102:
  2370 00:DE20: 82 D4 FF     	brl	L10100
  2371                        L10101:
  2372 00:DE23: AD D0 7D     	lda	pc
  2373 00:DE26: 85 01        	sta	<R0
  2374 00:DE28: B2 01        	lda	(<R0)
  2375 00:DE2A: 29 FF 00     	and	#$ff
  2376 00:DE2D: 85 05        	sta	<L155+x_1
  2377 00:DE2F: EE D0 7D     	inc	pc
  2378 00:DE32: D4 05        	pei	<L155+x_1
  2379 00:DE34: 20 48 DE     	jsr	expr
  2380 00:DE37: 85 07        	sta	<L155+e_1
  2381 00:DE39: A5 07        	lda	<L155+e_1
  2382                        L158:
  2383 00:DE3B: A8           	tay
  2384 00:DE3C: 2B           	pld
  2385 00:DE3D: 3B           	tsc
  2386 00:DE3E: 18           	clc
  2387 00:DE3F: 69 08 00     	adc	#L154
  2388 00:DE42: 1B           	tcs
  2389 00:DE43: 98           	tya
  2390 00:DE44: 60           	rts
  2391             00000008   L154	equ	8
  2392             00000005   L155	equ	5
  2393                        
  2394                        L153:
  2395 00:DE45: 20 3F 00     	db	$20,$3F,$00
  2396                        
  2397                        expr:
  2398                        	longa	on
  2399                        	longi	on
  2400 00:DE48: 3B           	tsc
  2401 00:DE49: 38           	sec
  2402 00:DE4A: E9 0C 00     	sbc	#L160
  2403 00:DE4D: 1B           	tcs
  2404 00:DE4E: 0B           	phd
  2405 00:DE4F: 5B           	tcd
  2406             00000003   c_0	set	3
  2407             00000000   o_1	set	0
  2408             00000002   o1_1	set	2
  2409             00000004   op2_1	set	4
  2410             00000006   e_1	set	6
  2411 00:DE50: D4 0F        	pei	<L160+c_0
  2412 00:DE52: 20 87 E0     	jsr	term
  2413 00:DE55: 85 0B        	sta	<L161+e_1
  2414                        L10103:
  2415 00:DE57: AD D0 7D     	lda	pc
  2416 00:DE5A: 85 01        	sta	<R0
  2417 00:DE5C: B2 01        	lda	(<R0)
  2418 00:DE5E: 29 FF 00     	and	#$ff
  2419 00:DE61: 85 05        	sta	<L161+o_1
  2420 00:DE63: EE D0 7D     	inc	pc
  2421 00:DE66: A5 05        	lda	<L161+o_1
  2422 00:DE68: 82 E6 01     	brl	L10105
  2423                        L10107:
  2424 00:DE6B: CE D0 7D     	dec	pc
  2425                        L10108:
  2426                        L10109:
  2427                        L10110:
  2428 00:DE6E: A5 0B        	lda	<L161+e_1
  2429                        L162:
  2430 00:DE70: A8           	tay
  2431 00:DE71: A5 0D        	lda	<L160+1
  2432 00:DE73: 85 0F        	sta	<L160+1+2
  2433 00:DE75: 2B           	pld
  2434 00:DE76: 3B           	tsc
  2435 00:DE77: 18           	clc
  2436 00:DE78: 69 0E 00     	adc	#L160+2
  2437 00:DE7B: 1B           	tcs
  2438 00:DE7C: 98           	tya
  2439 00:DE7D: 60           	rts
  2440                        L10111:
  2441 00:DE7E: AD D0 7D     	lda	pc
  2442 00:DE81: 85 01        	sta	<R0
  2443 00:DE83: B2 01        	lda	(<R0)
  2444 00:DE85: 29 FF 00     	and	#$ff
  2445 00:DE88: 85 07        	sta	<L161+o1_1
  2446 00:DE8A: EE D0 7D     	inc	pc
  2447 00:DE8D: A5 07        	lda	<L161+o1_1
  2448 00:DE8F: 82 75 00     	brl	L10112
  2449                        L10114:
  2450 00:DE92: AD D0 7D     	lda	pc
  2451 00:DE95: 85 01        	sta	<R0
  2452 00:DE97: EE D0 7D     	inc	pc
  2453 00:DE9A: B2 01        	lda	(<R0)
  2454 00:DE9C: 29 FF 00     	and	#$ff
  2455 00:DE9F: 48           	pha
  2456 00:DEA0: 20 87 E0     	jsr	term
  2457 00:DEA3: 85 09        	sta	<L161+op2_1
  2458 00:DEA5: 64 01        	stz	<R0
  2459 00:DEA7: A5 0B        	lda	<L161+e_1
  2460 00:DEA9: C5 09        	cmp	<L161+op2_1
  2461 00:DEAB: D0 03        	bne	L164
  2462 00:DEAD: 82 02 00     	brl	L163
  2463                        L164:
  2464 00:DEB0: E6 01        	inc	<R0
  2465                        L163:
  2466 00:DEB2: A5 01        	lda	<R0
  2467 00:DEB4: 85 0B        	sta	<L161+e_1
  2468 00:DEB6: 82 9E FF     	brl	L10103
  2469                        L10115:
  2470 00:DEB9: AD D0 7D     	lda	pc
  2471 00:DEBC: 85 01        	sta	<R0
  2472 00:DEBE: EE D0 7D     	inc	pc
  2473 00:DEC1: B2 01        	lda	(<R0)
  2474 00:DEC3: 29 FF 00     	and	#$ff
  2475 00:DEC6: 48           	pha
  2476 00:DEC7: 20 87 E0     	jsr	term
  2477 00:DECA: 85 09        	sta	<L161+op2_1
  2478 00:DECC: 64 01        	stz	<R0
  2479 00:DECE: 38           	sec
  2480 00:DECF: A5 09        	lda	<L161+op2_1
  2481 00:DED1: E5 0B        	sbc	<L161+e_1
  2482 00:DED3: 70 03        	bvs	L166
  2483 00:DED5: 49 00 80     	eor	#$8000
  2484                        L166:
  2485 00:DED8: 30 03        	bmi	L167
  2486 00:DEDA: 82 02 00     	brl	L165
  2487                        L167:
  2488 00:DEDD: E6 01        	inc	<R0
  2489                        L165:
  2490 00:DEDF: A5 01        	lda	<R0
  2491 00:DEE1: 85 0B        	sta	<L161+e_1
  2492 00:DEE3: 82 71 FF     	brl	L10103
  2493                        L10116:
  2494 00:DEE6: D4 07        	pei	<L161+o1_1
  2495 00:DEE8: 20 87 E0     	jsr	term
  2496 00:DEEB: 85 09        	sta	<L161+op2_1
  2497 00:DEED: 64 01        	stz	<R0
  2498 00:DEEF: 38           	sec
  2499 00:DEF0: A5 0B        	lda	<L161+e_1
  2500 00:DEF2: E5 09        	sbc	<L161+op2_1
  2501 00:DEF4: 70 03        	bvs	L169
  2502 00:DEF6: 49 00 80     	eor	#$8000
  2503                        L169:
  2504 00:DEF9: 10 03        	bpl	L170
  2505 00:DEFB: 82 02 00     	brl	L168
  2506                        L170:
  2507 00:DEFE: E6 01        	inc	<R0
  2508                        L168:
  2509 00:DF00: A5 01        	lda	<R0
  2510 00:DF02: 85 0B        	sta	<L161+e_1
  2511 00:DF04: 82 50 FF     	brl	L10103
  2512                        L10112:
  2513 00:DF07: 20 51 D2     	jsr	swt
  2514 00:DF0A: 02 00        	dw	2
  2515 00:DF0C: 3D 00        	dw	61
  2516 00:DF0E: B8 DE        	dw	L10115-1
  2517 00:DF10: 3E 00        	dw	62
  2518 00:DF12: 91 DE        	dw	L10114-1
  2519 00:DF14: E5 DE        	dw	L10116-1
  2520                        L10113:
  2521                        L10117:
  2522 00:DF16: AD D0 7D     	lda	pc
  2523 00:DF19: 85 01        	sta	<R0
  2524 00:DF1B: B2 01        	lda	(<R0)
  2525 00:DF1D: 29 FF 00     	and	#$ff
  2526 00:DF20: 85 07        	sta	<L161+o1_1
  2527 00:DF22: EE D0 7D     	inc	pc
  2528 00:DF25: A5 07        	lda	<L161+o1_1
  2529 00:DF27: 82 4E 00     	brl	L10118
  2530                        L10120:
  2531 00:DF2A: AD D0 7D     	lda	pc
  2532 00:DF2D: 85 01        	sta	<R0
  2533 00:DF2F: EE D0 7D     	inc	pc
  2534 00:DF32: B2 01        	lda	(<R0)
  2535 00:DF34: 29 FF 00     	and	#$ff
  2536 00:DF37: 48           	pha
  2537 00:DF38: 20 87 E0     	jsr	term
  2538 00:DF3B: 85 09        	sta	<L161+op2_1
  2539 00:DF3D: 64 01        	stz	<R0
  2540 00:DF3F: 38           	sec
  2541 00:DF40: A5 0B        	lda	<L161+e_1
  2542 00:DF42: E5 09        	sbc	<L161+op2_1
  2543 00:DF44: 70 03        	bvs	L172
  2544 00:DF46: 49 00 80     	eor	#$8000
  2545                        L172:
  2546 00:DF49: 30 03        	bmi	L173
  2547 00:DF4B: 82 02 00     	brl	L171
  2548                        L173:
  2549 00:DF4E: E6 01        	inc	<R0
  2550                        L171:
  2551 00:DF50: A5 01        	lda	<R0
  2552 00:DF52: 85 0B        	sta	<L161+e_1
  2553 00:DF54: 82 00 FF     	brl	L10103
  2554                        L10121:
  2555 00:DF57: D4 07        	pei	<L161+o1_1
  2556 00:DF59: 20 87 E0     	jsr	term
  2557 00:DF5C: 85 09        	sta	<L161+op2_1
  2558 00:DF5E: 64 01        	stz	<R0
  2559 00:DF60: 38           	sec
  2560 00:DF61: A5 09        	lda	<L161+op2_1
  2561 00:DF63: E5 0B        	sbc	<L161+e_1
  2562 00:DF65: 70 03        	bvs	L175
  2563 00:DF67: 49 00 80     	eor	#$8000
  2564                        L175:
  2565 00:DF6A: 10 03        	bpl	L176
  2566 00:DF6C: 82 02 00     	brl	L174
  2567                        L176:
  2568 00:DF6F: E6 01        	inc	<R0
  2569                        L174:
  2570 00:DF71: A5 01        	lda	<R0
  2571 00:DF73: 85 0B        	sta	<L161+e_1
  2572 00:DF75: 82 DF FE     	brl	L10103
  2573                        L10118:
  2574 00:DF78: 20 51 D2     	jsr	swt
  2575 00:DF7B: 01 00        	dw	1
  2576 00:DF7D: 3D 00        	dw	61
  2577 00:DF7F: 29 DF        	dw	L10120-1
  2578 00:DF81: 56 DF        	dw	L10121-1
  2579                        L10119:
  2580                        L10122:
  2581 00:DF83: AD D0 7D     	lda	pc
  2582 00:DF86: 85 01        	sta	<R0
  2583 00:DF88: EE D0 7D     	inc	pc
  2584 00:DF8B: B2 01        	lda	(<R0)
  2585 00:DF8D: 29 FF 00     	and	#$ff
  2586 00:DF90: 48           	pha
  2587 00:DF91: 20 87 E0     	jsr	term
  2588 00:DF94: 85 09        	sta	<L161+op2_1
  2589 00:DF96: 18           	clc
  2590 00:DF97: A5 0B        	lda	<L161+e_1
  2591 00:DF99: 65 09        	adc	<L161+op2_1
  2592 00:DF9B: 85 0B        	sta	<L161+e_1
  2593 00:DF9D: 82 E4 00     	brl	L10106
  2594                        L10123:
  2595 00:DFA0: AD D0 7D     	lda	pc
  2596 00:DFA3: 85 01        	sta	<R0
  2597 00:DFA5: EE D0 7D     	inc	pc
  2598 00:DFA8: B2 01        	lda	(<R0)
  2599 00:DFAA: 29 FF 00     	and	#$ff
  2600 00:DFAD: 48           	pha
  2601 00:DFAE: 20 87 E0     	jsr	term
  2602 00:DFB1: 85 09        	sta	<L161+op2_1
  2603 00:DFB3: 38           	sec
  2604 00:DFB4: A5 0B        	lda	<L161+e_1
  2605 00:DFB6: E5 09        	sbc	<L161+op2_1
  2606 00:DFB8: 85 0B        	sta	<L161+e_1
  2607 00:DFBA: 82 C7 00     	brl	L10106
  2608                        L10124:
  2609 00:DFBD: AD D0 7D     	lda	pc
  2610 00:DFC0: 85 01        	sta	<R0
  2611 00:DFC2: EE D0 7D     	inc	pc
  2612 00:DFC5: B2 01        	lda	(<R0)
  2613 00:DFC7: 29 FF 00     	and	#$ff
  2614 00:DFCA: 48           	pha
  2615 00:DFCB: 20 87 E0     	jsr	term
  2616 00:DFCE: 85 09        	sta	<L161+op2_1
  2617 00:DFD0: A5 0B        	lda	<L161+e_1
  2618 00:DFD2: A6 09        	ldx	<L161+op2_1
  2619 00:DFD4: 20 7D D1     	jsr	mul
  2620 00:DFD7: 85 0B        	sta	<L161+e_1
  2621 00:DFD9: 82 A8 00     	brl	L10106
  2622                        L10125:
  2623 00:DFDC: AD D0 7D     	lda	pc
  2624 00:DFDF: 85 01        	sta	<R0
  2625 00:DFE1: EE D0 7D     	inc	pc
  2626 00:DFE4: B2 01        	lda	(<R0)
  2627 00:DFE6: 29 FF 00     	and	#$ff
  2628 00:DFE9: 48           	pha
  2629 00:DFEA: 20 87 E0     	jsr	term
  2630 00:DFED: 85 09        	sta	<L161+op2_1
  2631 00:DFEF: A5 0B        	lda	<L161+e_1
  2632 00:DFF1: A6 09        	ldx	<L161+op2_1
  2633                        
  2634                        ;	jsr	mod
  2635                        ;	sta	var+74
  2636                        
  2637 00:DFF3: A5 0B        	lda	<L161+e_1
  2638 00:DFF5: A6 09        	ldx	<L161+op2_1
  2639 00:DFF7: 20 A5 D1     	jsr	div
  2640 00:DFFA: 85 0B        	sta	<L161+e_1
  2641 00:DFFC: 82 85 00     	brl	L10106
  2642                        L10126:
  2643 00:DFFF: AD D0 7D     	lda	pc
  2644 00:E002: 85 01        	sta	<R0
  2645 00:E004: EE D0 7D     	inc	pc
  2646 00:E007: B2 01        	lda	(<R0)
  2647 00:E009: 29 FF 00     	and	#$ff
  2648 00:E00C: 48           	pha
  2649 00:E00D: 20 87 E0     	jsr	term
  2650 00:E010: 85 09        	sta	<L161+op2_1
  2651 00:E012: 64 01        	stz	<R0
  2652 00:E014: A5 0B        	lda	<L161+e_1
  2653 00:E016: C5 09        	cmp	<L161+op2_1
  2654 00:E018: F0 03        	beq	L178
  2655 00:E01A: 82 02 00     	brl	L177
  2656                        L178:
  2657 00:E01D: E6 01        	inc	<R0
  2658                        L177:
  2659 00:E01F: A5 01        	lda	<R0
  2660 00:E021: 85 0B        	sta	<L161+e_1
  2661 00:E023: 82 5E 00     	brl	L10106
  2662                        L10127:
  2663 00:E026: E2 20        	sep	#$20
  2664                        	longa	off
  2665 00:E028: A9 20        	lda	#$20
  2666 00:E02A: 8D 00 7C     	sta	mm
  2667 00:E02D: C2 20        	rep	#$20
  2668                        	longa	on
  2669 00:E02F: E2 20        	sep	#$20
  2670                        	longa	off
  2671 00:E031: A5 05        	lda	<L161+o_1
  2672 00:E033: 8D 01 7C     	sta	mm+1
  2673 00:E036: C2 20        	rep	#$20
  2674                        	longa	on
  2675 00:E038: E2 20        	sep	#$20
  2676                        	longa	off
  2677 00:E03A: A9 3F        	lda	#$3f
  2678 00:E03C: 8D 02 7C     	sta	mm+2
  2679 00:E03F: C2 20        	rep	#$20
  2680                        	longa	on
  2681 00:E041: E2 20        	sep	#$20
  2682                        	longa	off
  2683 00:E043: 9C 03 7C     	stz	mm+3
  2684 00:E046: C2 20        	rep	#$20
  2685                        	longa	on
  2686 00:E048: F4 00 7C     	pea	#<mm
  2687 00:E04B: 20 12 E3     	jsr	errMsg
  2688 00:E04E: 82 33 00     	brl	L10106
  2689                        L10105:
  2690 00:E051: 20 51 D2     	jsr	swt
  2691 00:E054: 0B 00        	dw	11
  2692 00:E056: 00 00        	dw	0
  2693 00:E058: 6A DE        	dw	L10107-1
  2694 00:E05A: 20 00        	dw	32
  2695 00:E05C: 6D DE        	dw	L10108-1
  2696 00:E05E: 29 00        	dw	41
  2697 00:E060: 6D DE        	dw	L10109-1
  2698 00:E062: 2A 00        	dw	42
  2699 00:E064: BC DF        	dw	L10124-1
  2700 00:E066: 2B 00        	dw	43
  2701 00:E068: 82 DF        	dw	L10122-1
  2702 00:E06A: 2C 00        	dw	44
  2703 00:E06C: 6D DE        	dw	L10110-1
  2704 00:E06E: 2D 00        	dw	45
  2705 00:E070: 9F DF        	dw	L10123-1
  2706 00:E072: 2F 00        	dw	47
  2707 00:E074: DB DF        	dw	L10125-1
  2708 00:E076: 3C 00        	dw	60
  2709 00:E078: 7D DE        	dw	L10111-1
  2710 00:E07A: 3D 00        	dw	61
  2711 00:E07C: FE DF        	dw	L10126-1
  2712 00:E07E: 3E 00        	dw	62
  2713 00:E080: 15 DF        	dw	L10117-1
  2714 00:E082: 25 E0        	dw	L10127-1
  2715                        L10106:
  2716 00:E084: 82 D0 FD     	brl	L10103
  2717             0000000C   L160	equ	12
  2718             00000005   L161	equ	5
  2719                        
  2720                        term:
  2721                        	longa	on
  2722                        	longi	on
  2723 00:E087: 3B           	tsc
  2724 00:E088: 38           	sec
  2725 00:E089: E9 14 00     	sbc	#L179
  2726 00:E08C: 1B           	tcs
  2727 00:E08D: 0B           	phd
  2728 00:E08E: 5B           	tcd
  2729             00000003   c_0	set	3
  2730             00000000   e_1	set	0
  2731             00000002   f_1	set	2
  2732             00000004   vmode_1	set	4
  2733             00000006   ppp_1	set	6
  2734 00:E08F: 64 0F        	stz	<L180+f_1
  2735 00:E091: A5 17        	lda	<L179+c_0
  2736 00:E093: 82 67 01     	brl	L10128
  2737                        L10130:
  2738 00:E096: 18           	clc
  2739 00:E097: 7B           	tdc
  2740 00:E098: 69 0F 00     	adc	#<L180+f_1
  2741 00:E09B: 48           	pha
  2742 00:E09C: 20 F0 E6     	jsr	getHex
  2743 00:E09F: 85 0D        	sta	<L180+e_1
  2744 00:E0A1: A5 0F        	lda	<L180+f_1
  2745 00:E0A3: F0 03        	beq	L181
  2746 00:E0A5: 82 1C 00     	brl	L10131
  2747                        L181:
  2748 00:E0A8: 20 20 D1     	jsr	c_getch
  2749 00:E0AB: E2 20        	sep	#$20
  2750                        	longa	off
  2751 00:E0AD: 85 01        	sta	<R0
  2752 00:E0AF: C2 20        	rep	#$20
  2753                        	longa	on
  2754 00:E0B1: A5 01        	lda	<R0
  2755 00:E0B3: 29 FF 00     	and	#$ff
  2756                        L182:
  2757 00:E0B6: A8           	tay
  2758 00:E0B7: A5 15        	lda	<L179+1
  2759 00:E0B9: 85 17        	sta	<L179+1+2
  2760 00:E0BB: 2B           	pld
  2761 00:E0BC: 3B           	tsc
  2762 00:E0BD: 18           	clc
  2763 00:E0BE: 69 16 00     	adc	#L179+2
  2764 00:E0C1: 1B           	tcs
  2765 00:E0C2: 98           	tya
  2766 00:E0C3: 60           	rts
  2767                        L10131:
  2768 00:E0C4: A5 0D        	lda	<L180+e_1
  2769 00:E0C6: 82 ED FF     	brl	L182
  2770                        L10132:
  2771 00:E0C9: AD D0 7D     	lda	pc
  2772 00:E0CC: 85 01        	sta	<R0
  2773 00:E0CE: EE D0 7D     	inc	pc
  2774 00:E0D1: B2 01        	lda	(<R0)
  2775 00:E0D3: 29 FF 00     	and	#$ff
  2776 00:E0D6: 48           	pha
  2777 00:E0D7: 20 48 DE     	jsr	expr
  2778 00:E0DA: 85 0D        	sta	<L180+e_1
  2779 00:E0DC: 18           	clc
  2780 00:E0DD: A9 FF FF     	lda	#$ffff
  2781 00:E0E0: 6D D0 7D     	adc	pc
  2782 00:E0E3: 85 01        	sta	<R0
  2783 00:E0E5: E2 20        	sep	#$20
  2784                        	longa	off
  2785 00:E0E7: B2 01        	lda	(<R0)
  2786 00:E0E9: C9 29        	cmp	#<$29
  2787 00:E0EB: C2 20        	rep	#$20
  2788                        	longa	on
  2789 00:E0ED: D0 03        	bne	L183
  2790 00:E0EF: 82 06 00     	brl	L10133
  2791                        L183:
  2792 00:E0F2: F4 06 E3     	pea	#<L159
  2793 00:E0F5: 20 12 E3     	jsr	errMsg
  2794                        L10133:
  2795 00:E0F8: A5 0D        	lda	<L180+e_1
  2796 00:E0FA: 82 B9 FF     	brl	L182
  2797                        L10134:
  2798 00:E0FD: AD D0 7D     	lda	pc
  2799 00:E100: 85 01        	sta	<R0
  2800 00:E102: EE D0 7D     	inc	pc
  2801 00:E105: B2 01        	lda	(<R0)
  2802 00:E107: 29 FF 00     	and	#$ff
  2803 00:E10A: 48           	pha
  2804 00:E10B: 20 87 E0     	jsr	term
  2805 00:E10E: 85 0D        	sta	<L180+e_1
  2806 00:E110: A5 0D        	lda	<L180+e_1
  2807 00:E112: 30 03        	bmi	L185
  2808 00:E114: 82 08 00     	brl	L184
  2809                        L185:
  2810 00:E117: 38           	sec
  2811 00:E118: A9 00 00     	lda	#$0
  2812 00:E11B: E5 0D        	sbc	<L180+e_1
  2813 00:E11D: 80 02        	bra	L186
  2814                        L184:
  2815 00:E11F: A5 0D        	lda	<L180+e_1
  2816                        L186:
  2817 00:E121: 82 92 FF     	brl	L182
  2818                        L10135:
  2819 00:E124: AD D0 7D     	lda	pc
  2820 00:E127: 85 01        	sta	<R0
  2821 00:E129: EE D0 7D     	inc	pc
  2822 00:E12C: B2 01        	lda	(<R0)
  2823 00:E12E: 29 FF 00     	and	#$ff
  2824 00:E131: 48           	pha
  2825 00:E132: 20 87 E0     	jsr	term
  2826 00:E135: 85 01        	sta	<R0
  2827 00:E137: 38           	sec
  2828 00:E138: A9 00 00     	lda	#$0
  2829 00:E13B: E5 01        	sbc	<R0
  2830 00:E13D: 82 76 FF     	brl	L182
  2831                        L10136:
  2832 00:E140: 64 01        	stz	<R0
  2833 00:E142: AD D0 7D     	lda	pc
  2834 00:E145: 85 05        	sta	<R1
  2835 00:E147: EE D0 7D     	inc	pc
  2836 00:E14A: B2 05        	lda	(<R1)
  2837 00:E14C: 29 FF 00     	and	#$ff
  2838 00:E14F: 48           	pha
  2839 00:E150: 20 87 E0     	jsr	term
  2840 00:E153: AA           	tax
  2841 00:E154: F0 03        	beq	L188
  2842 00:E156: 82 02 00     	brl	L187
  2843                        L188:
  2844 00:E159: E6 01        	inc	<R0
  2845                        L187:
  2846 00:E15B: A5 01        	lda	<R0
  2847 00:E15D: 82 56 FF     	brl	L182
  2848                        L10137:
  2849 00:E160: AD D0 7D     	lda	pc
  2850 00:E163: 85 01        	sta	<R0
  2851 00:E165: EE D0 7D     	inc	pc
  2852 00:E168: B2 01        	lda	(<R0)
  2853 00:E16A: 29 FF 00     	and	#$ff
  2854 00:E16D: 48           	pha
  2855 00:E16E: 20 87 E0     	jsr	term
  2856 00:E171: 85 01        	sta	<R0
  2857 00:E173: 20 30 D1     	jsr	rand
  2858 00:E176: 85 05        	sta	<R1
  2859 00:E178: A5 05        	lda	<R1
  2860 00:E17A: A6 01        	ldx	<R0
  2861 00:E17C: 20 22 D2     	jsr	mod
  2862 00:E17F: 85 01        	sta	<R0
  2863 00:E181: A5 01        	lda	<R0
  2864 00:E183: 1A           	ina
  2865 00:E184: 82 2F FF     	brl	L182
  2866                        L10138:
  2867 00:E187: AD D0 7D     	lda	pc
  2868 00:E18A: 85 01        	sta	<R0
  2869 00:E18C: EE D0 7D     	inc	pc
  2870 00:E18F: B2 01        	lda	(<R0)
  2871 00:E191: 29 FF 00     	and	#$ff
  2872 00:E194: 48           	pha
  2873 00:E195: 20 87 E0     	jsr	term
  2874 00:E198: 85 0D        	sta	<L180+e_1
  2875 00:E19A: AD 4E 7C     	lda	var+74
  2876 00:E19D: 82 16 FF     	brl	L182
  2877                        L10139:
  2878 00:E1A0: F4 D2 7D     	pea	#<lky_buf
  2879 00:E1A3: 20 60 E4     	jsr	c_gets
  2880 00:E1A6: AD D0 7D     	lda	pc
  2881 00:E1A9: 85 13        	sta	<L180+ppp_1
  2882 00:E1AB: A9 D2 7D     	lda	#<lky_buf
  2883 00:E1AE: 8D D0 7D     	sta	pc
  2884 00:E1B1: AD D0 7D     	lda	pc
  2885 00:E1B4: 85 01        	sta	<R0
  2886 00:E1B6: EE D0 7D     	inc	pc
  2887 00:E1B9: B2 01        	lda	(<R0)
  2888 00:E1BB: 29 FF 00     	and	#$ff
  2889 00:E1BE: 48           	pha
  2890 00:E1BF: 20 48 DE     	jsr	expr
  2891 00:E1C2: 85 0D        	sta	<L180+e_1
  2892 00:E1C4: A5 13        	lda	<L180+ppp_1
  2893 00:E1C6: 8D D0 7D     	sta	pc
  2894 00:E1C9: A5 0D        	lda	<L180+e_1
  2895 00:E1CB: 82 E8 FE     	brl	L182
  2896                        L10140:
  2897 00:E1CE: AD D0 7D     	lda	pc
  2898 00:E1D1: 85 01        	sta	<R0
  2899 00:E1D3: B2 01        	lda	(<R0)
  2900 00:E1D5: 29 FF 00     	and	#$ff
  2901 00:E1D8: 85 0D        	sta	<L180+e_1
  2902 00:E1DA: EE D0 7D     	inc	pc
  2903 00:E1DD: AD D0 7D     	lda	pc
  2904 00:E1E0: 85 01        	sta	<R0
  2905 00:E1E2: EE D0 7D     	inc	pc
  2906 00:E1E5: E2 20        	sep	#$20
  2907                        	longa	off
  2908 00:E1E7: B2 01        	lda	(<R0)
  2909 00:E1E9: C9 22        	cmp	#<$22
  2910 00:E1EB: C2 20        	rep	#$20
  2911                        	longa	on
  2912 00:E1ED: D0 03        	bne	L189
  2913 00:E1EF: 82 06 00     	brl	L10141
  2914                        L189:
  2915 00:E1F2: F4 0A E3     	pea	#<L159+4
  2916 00:E1F5: 20 12 E3     	jsr	errMsg
  2917                        L10141:
  2918 00:E1F8: A5 0D        	lda	<L180+e_1
  2919 00:E1FA: 82 B9 FE     	brl	L182
  2920                        L10128:
  2921 00:E1FD: 20 51 D2     	jsr	swt
  2922 00:E200: 09 00        	dw	9
  2923 00:E202: 22 00        	dw	34
  2924 00:E204: CD E1        	dw	L10140-1
  2925 00:E206: 23 00        	dw	35
  2926 00:E208: 3F E1        	dw	L10136-1
  2927 00:E20A: 24 00        	dw	36
  2928 00:E20C: 95 E0        	dw	L10130-1
  2929 00:E20E: 25 00        	dw	37
  2930 00:E210: 86 E1        	dw	L10138-1
  2931 00:E212: 27 00        	dw	39
  2932 00:E214: 5F E1        	dw	L10137-1
  2933 00:E216: 28 00        	dw	40
  2934 00:E218: C8 E0        	dw	L10132-1
  2935 00:E21A: 2B 00        	dw	43
  2936 00:E21C: FC E0        	dw	L10134-1
  2937 00:E21E: 2D 00        	dw	45
  2938 00:E220: 23 E1        	dw	L10135-1
  2939 00:E222: 3F 00        	dw	63
  2940 00:E224: 9F E1        	dw	L10139-1
  2941 00:E226: 27 E2        	dw	L10129-1
  2942                        L10129:
  2943 00:E228: 38           	sec
  2944 00:E229: A5 17        	lda	<L179+c_0
  2945 00:E22B: E9 30 00     	sbc	#<$30
  2946 00:E22E: 70 03        	bvs	L190
  2947 00:E230: 49 00 80     	eor	#$8000
  2948                        L190:
  2949 00:E233: 30 03        	bmi	L191
  2950 00:E235: 82 23 00     	brl	L10142
  2951                        L191:
  2952 00:E238: 38           	sec
  2953 00:E239: A9 39 00     	lda	#$39
  2954 00:E23C: E5 17        	sbc	<L179+c_0
  2955 00:E23E: 70 03        	bvs	L192
  2956 00:E240: 49 00 80     	eor	#$8000
  2957                        L192:
  2958 00:E243: 30 03        	bmi	L193
  2959 00:E245: 82 13 00     	brl	L10142
  2960                        L193:
  2961 00:E248: CE D0 7D     	dec	pc
  2962 00:E24B: 18           	clc
  2963 00:E24C: 7B           	tdc
  2964 00:E24D: 69 0F 00     	adc	#<L180+f_1
  2965 00:E250: 48           	pha
  2966 00:E251: 20 73 E6     	jsr	getNum
  2967 00:E254: 85 0D        	sta	<L180+e_1
  2968 00:E256: A5 0D        	lda	<L180+e_1
  2969 00:E258: 82 5B FE     	brl	L182
  2970                        L10142:
  2971 00:E25B: 20 B5 D7     	jsr	skipAlpha
  2972 00:E25E: 85 11        	sta	<L180+vmode_1
  2973 00:E260: A5 11        	lda	<L180+vmode_1
  2974 00:E262: C9 3A 00     	cmp	#<$3a
  2975 00:E265: D0 03        	bne	L195
  2976 00:E267: 82 0A 00     	brl	L194
  2977                        L195:
  2978 00:E26A: A5 11        	lda	<L180+vmode_1
  2979 00:E26C: C9 28 00     	cmp	#<$28
  2980 00:E26F: F0 03        	beq	L196
  2981 00:E271: 82 80 00     	brl	L10143
  2982                        L196:
  2983                        L194:
  2984 00:E274: EE D0 7D     	inc	pc
  2985 00:E277: AD D0 7D     	lda	pc
  2986 00:E27A: 85 01        	sta	<R0
  2987 00:E27C: EE D0 7D     	inc	pc
  2988 00:E27F: B2 01        	lda	(<R0)
  2989 00:E281: 29 FF 00     	and	#$ff
  2990 00:E284: 48           	pha
  2991 00:E285: 20 48 DE     	jsr	expr
  2992 00:E288: 85 0D        	sta	<L180+e_1
  2993 00:E28A: 18           	clc
  2994 00:E28B: A9 FF FF     	lda	#$ffff
  2995 00:E28E: 6D D0 7D     	adc	pc
  2996 00:E291: 85 01        	sta	<R0
  2997 00:E293: E2 20        	sep	#$20
  2998                        	longa	off
  2999 00:E295: B2 01        	lda	(<R0)
  3000 00:E297: C9 29        	cmp	#<$29
  3001 00:E299: C2 20        	rep	#$20
  3002                        	longa	on
  3003 00:E29B: D0 03        	bne	L197
  3004 00:E29D: 82 06 00     	brl	L10144
  3005                        L197:
  3006 00:E2A0: F4 0E E3     	pea	#<L159+8
  3007 00:E2A3: 20 12 E3     	jsr	errMsg
  3008                        L10144:
  3009 00:E2A6: A5 11        	lda	<L180+vmode_1
  3010 00:E2A8: 82 3A 00     	brl	L10145
  3011                        L10147:
  3012 00:E2AB: A5 17        	lda	<L179+c_0
  3013 00:E2AD: 0A           	asl	A
  3014 00:E2AE: 85 01        	sta	<R0
  3015 00:E2B0: 18           	clc
  3016 00:E2B1: A9 04 7C     	lda	#<var
  3017 00:E2B4: 65 01        	adc	<R0
  3018 00:E2B6: 85 05        	sta	<R1
  3019 00:E2B8: 18           	clc
  3020 00:E2B9: B2 05        	lda	(<R1)
  3021 00:E2BB: 65 0D        	adc	<L180+e_1
  3022 00:E2BD: 85 01        	sta	<R0
  3023 00:E2BF: B2 01        	lda	(<R0)
  3024 00:E2C1: 29 FF 00     	and	#$ff
  3025 00:E2C4: 82 EF FD     	brl	L182
  3026                        L10148:
  3027 00:E2C7: A5 17        	lda	<L179+c_0
  3028 00:E2C9: 0A           	asl	A
  3029 00:E2CA: 85 01        	sta	<R0
  3030 00:E2CC: 18           	clc
  3031 00:E2CD: A9 04 7C     	lda	#<var
  3032 00:E2D0: 65 01        	adc	<R0
  3033 00:E2D2: 85 05        	sta	<R1
  3034 00:E2D4: A5 0D        	lda	<L180+e_1
  3035 00:E2D6: 0A           	asl	A
  3036 00:E2D7: 85 01        	sta	<R0
  3037 00:E2D9: 18           	clc
  3038 00:E2DA: B2 05        	lda	(<R1)
  3039 00:E2DC: 65 01        	adc	<R0
  3040 00:E2DE: 85 09        	sta	<R2
  3041 00:E2E0: B2 09        	lda	(<R2)
  3042 00:E2E2: 82 D1 FD     	brl	L182
  3043                        L10145:
  3044 00:E2E5: 20 51 D2     	jsr	swt
  3045 00:E2E8: 02 00        	dw	2
  3046 00:E2EA: 28 00        	dw	40
  3047 00:E2EC: C6 E2        	dw	L10148-1
  3048 00:E2EE: 3A 00        	dw	58
  3049 00:E2F0: AA E2        	dw	L10147-1
  3050 00:E2F2: F3 E2        	dw	L10146-1
  3051                        L10146:
  3052                        L10143:
  3053 00:E2F4: A5 17        	lda	<L179+c_0
  3054 00:E2F6: 0A           	asl	A
  3055 00:E2F7: 85 01        	sta	<R0
  3056 00:E2F9: 18           	clc
  3057 00:E2FA: A9 04 7C     	lda	#<var
  3058 00:E2FD: 65 01        	adc	<R0
  3059 00:E2FF: 85 05        	sta	<R1
  3060 00:E301: B2 05        	lda	(<R1)
  3061 00:E303: 82 B0 FD     	brl	L182
  3062             00000014   L179	equ	20
  3063             0000000D   L180	equ	13
  3064                        
  3065                        L159:
  3066 00:E306: 20 29 3F 00  	db	" )?",0
  3067 00:E30A: 20 22 3F 00  	db	' ','"','?',0
  3068 00:E30E: 20 29 3F 00  	db	" )?",0
  3069                        
  3070                        errMsg:
  3071                        	longa	on
  3072                        	longi	on
  3073 00:E312: 3B           	tsc
  3074 00:E313: 38           	sec
  3075 00:E314: E9 08 00     	sbc	#L199
  3076 00:E317: 1B           	tcs
  3077 00:E318: 0B           	phd
  3078 00:E319: 5B           	tcd
  3079             00000003   s_0	set	3
  3080             00000000   a_1	set	0
  3081 00:E31A: F4 60 E3     	pea	#<L198
  3082 00:E31D: 20 6D D2     	jsr	c_puts
  3083 00:E320: D4 0B        	pei	<L199+s_0
  3084 00:E322: 20 6D D2     	jsr	c_puts
  3085 00:E325: AD 04 7D     	lda	lno
  3086 00:E328: D0 03        	bne	L201
  3087 00:E32A: 82 1F 00     	brl	L10149
  3088                        L201:
  3089 00:E32D: F4 66 E3     	pea	#<L198+6
  3090 00:E330: 20 6D D2     	jsr	c_puts
  3091 00:E333: F4 01 00     	pea	#<$1
  3092 00:E336: AD 04 7D     	lda	lno
  3093 00:E339: 48           	pha
  3094 00:E33A: 18           	clc
  3095 00:E33B: 7B           	tdc
  3096 00:E33C: 69 01 00     	adc	#<L200+a_1
  3097 00:E33F: 48           	pha
  3098 00:E340: 20 97 D5     	jsr	mk_dStr
  3099 00:E343: 18           	clc
  3100 00:E344: 7B           	tdc
  3101 00:E345: 69 01 00     	adc	#<L200+a_1
  3102 00:E348: 48           	pha
  3103 00:E349: 20 6D D2     	jsr	c_puts
  3104                        L10149:
  3105 00:E34C: F4 00 00     	pea	#<$0
  3106 00:E34F: 20 6B E3     	jsr	w_boot
  3107                        L202:
  3108 00:E352: A8           	tay
  3109 00:E353: A5 09        	lda	<L199+1
  3110 00:E355: 85 0B        	sta	<L199+1+2
  3111 00:E357: 2B           	pld
  3112 00:E358: 3B           	tsc
  3113 00:E359: 18           	clc
  3114 00:E35A: 69 0A 00     	adc	#L199+2
  3115 00:E35D: 1B           	tcs
  3116 00:E35E: 98           	tya
  3117 00:E35F: 60           	rts
  3118             00000008   L199	equ	8
  3119             00000001   L200	equ	1
  3120                        
  3121                        L198:
  3122 00:E360: 0D 0A 45 72  	db	$0D,$0A,$45,$72,$72,$00,$20,$69,$6E,$20,$00
       00:E364: 72 00 20 69 
       00:E368: 6E 20 00 
  3123                        
  3124                        w_boot:
  3125                        	longa	on
  3126                        	longi	on
  3127 00:E36B: 3B           	tsc
  3128 00:E36C: 38           	sec
  3129 00:E36D: E9 00 00     	sbc	#L204
  3130 00:E370: 1B           	tcs
  3131 00:E371: 0B           	phd
  3132 00:E372: 5B           	tcd
  3133             00000003   msg_0	set	3
  3134 00:E373: 20 43 E4     	jsr	newline
  3135 00:E376: A5 03        	lda	<L204+msg_0
  3136 00:E378: D0 03        	bne	L206
  3137 00:E37A: 82 05 00     	brl	L10150
  3138                        L206:
  3139 00:E37D: D4 03        	pei	<L204+msg_0
  3140 00:E37F: 20 6D D2     	jsr	c_puts
  3141                        L10150:
  3142 00:E382: 20 61 D1     	jsr	warm_boot
  3143                        L207:
  3144 00:E385: A8           	tay
  3145 00:E386: A5 01        	lda	<L204+1
  3146 00:E388: 85 03        	sta	<L204+1+2
  3147 00:E38A: 2B           	pld
  3148 00:E38B: 3B           	tsc
  3149 00:E38C: 18           	clc
  3150 00:E38D: 69 02 00     	adc	#L204+2
  3151 00:E390: 1B           	tcs
  3152 00:E391: 98           	tya
  3153 00:E392: 60           	rts
  3154             00000000   L204	equ	0
  3155             00000001   L205	equ	1
  3156                        
  3157                        er_boot:
  3158                        	longa	on
  3159                        	longi	on
  3160 00:E393: 3B           	tsc
  3161 00:E394: 38           	sec
  3162 00:E395: E9 00 00     	sbc	#L208
  3163 00:E398: 1B           	tcs
  3164 00:E399: 0B           	phd
  3165 00:E39A: 5B           	tcd
  3166             00000003   msg_0	set	3
  3167 00:E39B: F4 BE E3     	pea	#<L203
  3168 00:E39E: 20 6D D2     	jsr	c_puts
  3169 00:E3A1: A5 03        	lda	<L208+msg_0
  3170 00:E3A3: D0 03        	bne	L210
  3171 00:E3A5: 82 05 00     	brl	L10151
  3172                        L210:
  3173 00:E3A8: D4 03        	pei	<L208+msg_0
  3174 00:E3AA: 20 6D D2     	jsr	c_puts
  3175                        L10151:
  3176 00:E3AD: 20 61 D1     	jsr	warm_boot
  3177                        L211:
  3178 00:E3B0: A8           	tay
  3179 00:E3B1: A5 01        	lda	<L208+1
  3180 00:E3B3: 85 03        	sta	<L208+1+2
  3181 00:E3B5: 2B           	pld
  3182 00:E3B6: 3B           	tsc
  3183 00:E3B7: 18           	clc
  3184 00:E3B8: 69 02 00     	adc	#L208+2
  3185 00:E3BB: 1B           	tcs
  3186 00:E3BC: 98           	tya
  3187 00:E3BD: 60           	rts
  3188             00000000   L208	equ	0
  3189             00000001   L209	equ	1
  3190                        
  3191                        L203:
  3192 00:E3BE: 0D 0A 45 72  	db	$0D,$0A,$45,$72,$72,$00
       00:E3C2: 72 00 
  3193                        
  3194                        c_isprint:
  3195                        	longa	on
  3196                        	longi	on
  3197 00:E3C4: 3B           	tsc
  3198 00:E3C5: 38           	sec
  3199 00:E3C6: E9 04 00     	sbc	#L213
  3200 00:E3C9: 1B           	tcs
  3201 00:E3CA: 0B           	phd
  3202 00:E3CB: 5B           	tcd
  3203             00000003   c_0	set	3
  3204 00:E3CC: 64 01        	stz	<R0
  3205 00:E3CE: E2 20        	sep	#$20
  3206                        	longa	off
  3207 00:E3D0: A5 07        	lda	<L213+c_0
  3208 00:E3D2: C9 20        	cmp	#<$20
  3209 00:E3D4: C2 20        	rep	#$20
  3210                        	longa	on
  3211 00:E3D6: B0 03        	bcs	L216
  3212 00:E3D8: 82 0F 00     	brl	L215
  3213                        L216:
  3214 00:E3DB: E2 20        	sep	#$20
  3215                        	longa	off
  3216 00:E3DD: A9 7E        	lda	#$7e
  3217 00:E3DF: C5 07        	cmp	<L213+c_0
  3218 00:E3E1: C2 20        	rep	#$20
  3219                        	longa	on
  3220 00:E3E3: B0 03        	bcs	L217
  3221 00:E3E5: 82 02 00     	brl	L215
  3222                        L217:
  3223 00:E3E8: E6 01        	inc	<R0
  3224                        L215:
  3225 00:E3EA: A5 01        	lda	<R0
  3226 00:E3EC: 29 FF 00     	and	#$ff
  3227                        L218:
  3228 00:E3EF: A8           	tay
  3229 00:E3F0: A5 05        	lda	<L213+1
  3230 00:E3F2: 85 07        	sta	<L213+1+2
  3231 00:E3F4: 2B           	pld
  3232 00:E3F5: 3B           	tsc
  3233 00:E3F6: 18           	clc
  3234 00:E3F7: 69 06 00     	adc	#L213+2
  3235 00:E3FA: 1B           	tcs
  3236 00:E3FB: 98           	tya
  3237 00:E3FC: 60           	rts
  3238             00000004   L213	equ	4
  3239             00000005   L214	equ	5
  3240                        
  3241                        c_isspace:
  3242                        	longa	on
  3243                        	longi	on
  3244 00:E3FD: 3B           	tsc
  3245 00:E3FE: 38           	sec
  3246 00:E3FF: E9 04 00     	sbc	#L219
  3247 00:E402: 1B           	tcs
  3248 00:E403: 0B           	phd
  3249 00:E404: 5B           	tcd
  3250             00000003   c_0	set	3
  3251 00:E405: 64 01        	stz	<R0
  3252 00:E407: E2 20        	sep	#$20
  3253                        	longa	off
  3254 00:E409: A5 07        	lda	<L219+c_0
  3255 00:E40B: C9 20        	cmp	#<$20
  3256 00:E40D: C2 20        	rep	#$20
  3257                        	longa	on
  3258 00:E40F: D0 03        	bne	L223
  3259 00:E411: 82 1A 00     	brl	L222
  3260                        L223:
  3261 00:E414: E2 20        	sep	#$20
  3262                        	longa	off
  3263 00:E416: A9 0D        	lda	#$d
  3264 00:E418: C5 07        	cmp	<L219+c_0
  3265 00:E41A: C2 20        	rep	#$20
  3266                        	longa	on
  3267 00:E41C: B0 03        	bcs	L224
  3268 00:E41E: 82 0F 00     	brl	L221
  3269                        L224:
  3270 00:E421: E2 20        	sep	#$20
  3271                        	longa	off
  3272 00:E423: A5 07        	lda	<L219+c_0
  3273 00:E425: C9 09        	cmp	#<$9
  3274 00:E427: C2 20        	rep	#$20
  3275                        	longa	on
  3276 00:E429: B0 03        	bcs	L225
  3277 00:E42B: 82 02 00     	brl	L221
  3278                        L225:
  3279                        L222:
  3280 00:E42E: E6 01        	inc	<R0
  3281                        L221:
  3282 00:E430: A5 01        	lda	<R0
  3283 00:E432: 29 FF 00     	and	#$ff
  3284                        L226:
  3285 00:E435: A8           	tay
  3286 00:E436: A5 05        	lda	<L219+1
  3287 00:E438: 85 07        	sta	<L219+1+2
  3288 00:E43A: 2B           	pld
  3289 00:E43B: 3B           	tsc
  3290 00:E43C: 18           	clc
  3291 00:E43D: 69 06 00     	adc	#L219+2
  3292 00:E440: 1B           	tcs
  3293 00:E441: 98           	tya
  3294 00:E442: 60           	rts
  3295             00000004   L219	equ	4
  3296             00000005   L220	equ	5
  3297                        
  3298                        newline:
  3299                        	longa	on
  3300                        	longi	on
  3301 00:E443: 3B           	tsc
  3302 00:E444: 38           	sec
  3303 00:E445: E9 02 00     	sbc	#L227
  3304 00:E448: 1B           	tcs
  3305 00:E449: 0B           	phd
  3306 00:E44A: 5B           	tcd
  3307             00000000   crlf_1	set	0
  3308 00:E44B: A9 5D E4     	lda	#<L212
  3309 00:E44E: 85 01        	sta	<L228+crlf_1
  3310 00:E450: D4 01        	pei	<L228+crlf_1
  3311 00:E452: 20 6D D2     	jsr	c_puts
  3312                        L229:
  3313 00:E455: 2B           	pld
  3314 00:E456: 3B           	tsc
  3315 00:E457: 18           	clc
  3316 00:E458: 69 02 00     	adc	#L227
  3317 00:E45B: 1B           	tcs
  3318 00:E45C: 60           	rts
  3319             00000002   L227	equ	2
  3320             00000001   L228	equ	1
  3321                        
  3322                        L212:
  3323 00:E45D: 0D 0A 00     	db	$0D,$0A,$00
  3324                        
  3325                        c_gets:
  3326                        	longa	on
  3327                        	longi	on
  3328 00:E460: 3B           	tsc
  3329 00:E461: 38           	sec
  3330 00:E462: E9 03 00     	sbc	#L231
  3331 00:E465: 1B           	tcs
  3332 00:E466: 0B           	phd
  3333 00:E467: 5B           	tcd
  3334             00000003   lbuf_0	set	3
  3335             00000000   c_1	set	0
  3336             00000001   len_1	set	1
  3337 00:E468: 64 02        	stz	<L232+len_1
  3338                        L10152:
  3339 00:E46A: 20 20 D1     	jsr	c_getch
  3340 00:E46D: E2 20        	sep	#$20
  3341                        	longa	off
  3342 00:E46F: 85 01        	sta	<L232+c_1
  3343 00:E471: C2 20        	rep	#$20
  3344                        	longa	on
  3345 00:E473: E2 20        	sep	#$20
  3346                        	longa	off
  3347 00:E475: A5 01        	lda	<L232+c_1
  3348 00:E477: C9 0D        	cmp	#<$d
  3349 00:E479: C2 20        	rep	#$20
  3350                        	longa	on
  3351 00:E47B: D0 03        	bne	L233
  3352 00:E47D: 82 7F 00     	brl	L10153
  3353                        L233:
  3354 00:E480: E2 20        	sep	#$20
  3355                        	longa	off
  3356 00:E482: A5 01        	lda	<L232+c_1
  3357 00:E484: C9 09        	cmp	#<$9
  3358 00:E486: C2 20        	rep	#$20
  3359                        	longa	on
  3360 00:E488: F0 03        	beq	L234
  3361 00:E48A: 82 08 00     	brl	L10154
  3362                        L234:
  3363 00:E48D: E2 20        	sep	#$20
  3364                        	longa	off
  3365 00:E48F: A9 20        	lda	#$20
  3366 00:E491: 85 01        	sta	<L232+c_1
  3367 00:E493: C2 20        	rep	#$20
  3368                        	longa	on
  3369                        L10154:
  3370 00:E495: E2 20        	sep	#$20
  3371                        	longa	off
  3372 00:E497: A5 01        	lda	<L232+c_1
  3373 00:E499: C9 08        	cmp	#<$8
  3374 00:E49B: C2 20        	rep	#$20
  3375                        	longa	on
  3376 00:E49D: D0 03        	bne	L236
  3377 00:E49F: 82 0D 00     	brl	L235
  3378                        L236:
  3379 00:E4A2: E2 20        	sep	#$20
  3380                        	longa	off
  3381 00:E4A4: A5 01        	lda	<L232+c_1
  3382 00:E4A6: C9 7F        	cmp	#<$7f
  3383 00:E4A8: C2 20        	rep	#$20
  3384                        	longa	on
  3385 00:E4AA: F0 03        	beq	L237
  3386 00:E4AC: 82 21 00     	brl	L10155
  3387                        L237:
  3388                        L235:
  3389 00:E4AF: A9 00 00     	lda	#$0
  3390 00:E4B2: C5 02        	cmp	<L232+len_1
  3391 00:E4B4: 90 03        	bcc	L238
  3392 00:E4B6: 82 17 00     	brl	L10155
  3393                        L238:
  3394 00:E4B9: C6 02        	dec	<L232+len_1
  3395 00:E4BB: F4 08 00     	pea	#<$8
  3396 00:E4BE: 20 26 D1     	jsr	c_putch
  3397 00:E4C1: F4 20 00     	pea	#<$20
  3398 00:E4C4: 20 26 D1     	jsr	c_putch
  3399 00:E4C7: F4 08 00     	pea	#<$8
  3400 00:E4CA: 20 26 D1     	jsr	c_putch
  3401 00:E4CD: 82 2C 00     	brl	L10156
  3402                        L10155:
  3403 00:E4D0: D4 01        	pei	<L232+c_1
  3404 00:E4D2: 20 C4 E3     	jsr	c_isprint
  3405 00:E4D5: 29 FF 00     	and	#$ff
  3406 00:E4D8: D0 03        	bne	L239
  3407 00:E4DA: 82 1F 00     	brl	L10157
  3408                        L239:
  3409 00:E4DD: A5 02        	lda	<L232+len_1
  3410 00:E4DF: C9 9F 00     	cmp	#<$9f
  3411 00:E4E2: 90 03        	bcc	L240
  3412 00:E4E4: 82 15 00     	brl	L10157
  3413                        L240:
  3414 00:E4E7: E2 20        	sep	#$20
  3415                        	longa	off
  3416 00:E4E9: A5 01        	lda	<L232+c_1
  3417 00:E4EB: A4 02        	ldy	<L232+len_1
  3418 00:E4ED: 91 06        	sta	(<L231+lbuf_0),Y
  3419 00:E4EF: C2 20        	rep	#$20
  3420                        	longa	on
  3421 00:E4F1: E6 02        	inc	<L232+len_1
  3422 00:E4F3: A5 01        	lda	<L232+c_1
  3423 00:E4F5: 29 FF 00     	and	#$ff
  3424 00:E4F8: 48           	pha
  3425 00:E4F9: 20 26 D1     	jsr	c_putch
  3426                        L10157:
  3427                        L10156:
  3428 00:E4FC: 82 6B FF     	brl	L10152
  3429                        L10153:
  3430 00:E4FF: 20 43 E4     	jsr	newline
  3431 00:E502: E2 20        	sep	#$20
  3432                        	longa	off
  3433 00:E504: A9 00        	lda	#$0
  3434 00:E506: A4 02        	ldy	<L232+len_1
  3435 00:E508: 91 06        	sta	(<L231+lbuf_0),Y
  3436 00:E50A: C2 20        	rep	#$20
  3437                        	longa	on
  3438 00:E50C: A9 00 00     	lda	#$0
  3439 00:E50F: C5 02        	cmp	<L232+len_1
  3440 00:E511: 90 03        	bcc	L241
  3441 00:E513: 82 1E 00     	brl	L10158
  3442                        L241:
  3443                        L10161:
  3444 00:E516: C6 02        	dec	<L232+len_1
  3445                        L10159:
  3446 00:E518: A4 02        	ldy	<L232+len_1
  3447 00:E51A: B1 06        	lda	(<L231+lbuf_0),Y
  3448 00:E51C: 48           	pha
  3449 00:E51D: 20 FD E3     	jsr	c_isspace
  3450 00:E520: 29 FF 00     	and	#$ff
  3451 00:E523: F0 03        	beq	L242
  3452 00:E525: 82 EE FF     	brl	L10161
  3453                        L242:
  3454                        L10160:
  3455 00:E528: E6 02        	inc	<L232+len_1
  3456 00:E52A: E2 20        	sep	#$20
  3457                        	longa	off
  3458 00:E52C: A9 00        	lda	#$0
  3459 00:E52E: A4 02        	ldy	<L232+len_1
  3460 00:E530: 91 06        	sta	(<L231+lbuf_0),Y
  3461 00:E532: C2 20        	rep	#$20
  3462                        	longa	on
  3463                        L10158:
  3464 00:E534: A5 02        	lda	<L232+len_1
  3465                        L243:
  3466 00:E536: A8           	tay
  3467 00:E537: A5 04        	lda	<L231+1
  3468 00:E539: 85 06        	sta	<L231+1+2
  3469 00:E53B: 2B           	pld
  3470 00:E53C: 3B           	tsc
  3471 00:E53D: 18           	clc
  3472 00:E53E: 69 05 00     	adc	#L231+2
  3473 00:E541: 1B           	tcs
  3474 00:E542: 98           	tya
  3475 00:E543: 60           	rts
  3476             00000003   L231	equ	3
  3477             00000001   L232	equ	1
  3478                        
  3479                        memmove:
  3480                        	longa	on
  3481                        	longi	on
  3482 00:E544: 3B           	tsc
  3483 00:E545: 38           	sec
  3484 00:E546: E9 08 00     	sbc	#L244
  3485 00:E549: 1B           	tcs
  3486 00:E54A: 0B           	phd
  3487 00:E54B: 5B           	tcd
  3488             00000003   dest_0	set	3
  3489             00000005   src_0	set	5
  3490             00000007   n_0	set	7
  3491             00000000   tmp_1	set	0
  3492             00000002   s_1	set	2
  3493 00:E54C: A5 0D        	lda	<L244+src_0
  3494 00:E54E: C5 0B        	cmp	<L244+dest_0
  3495 00:E550: B0 03        	bcs	L246
  3496 00:E552: 82 27 00     	brl	L10162
  3497                        L246:
  3498 00:E555: A5 0B        	lda	<L244+dest_0
  3499 00:E557: 85 05        	sta	<L245+tmp_1
  3500 00:E559: A5 0D        	lda	<L244+src_0
  3501 00:E55B: 85 07        	sta	<L245+s_1
  3502                        L10163:
  3503 00:E55D: A5 0F        	lda	<L244+n_0
  3504 00:E55F: 85 01        	sta	<R0
  3505 00:E561: C6 0F        	dec	<L244+n_0
  3506 00:E563: A5 01        	lda	<R0
  3507 00:E565: D0 03        	bne	L247
  3508 00:E567: 82 0F 00     	brl	L10164
  3509                        L247:
  3510 00:E56A: E2 20        	sep	#$20
  3511                        	longa	off
  3512 00:E56C: B2 07        	lda	(<L245+s_1)
  3513 00:E56E: 92 05        	sta	(<L245+tmp_1)
  3514 00:E570: C2 20        	rep	#$20
  3515                        	longa	on
  3516 00:E572: E6 07        	inc	<L245+s_1
  3517 00:E574: E6 05        	inc	<L245+tmp_1
  3518 00:E576: 82 E4 FF     	brl	L10163
  3519                        L10164:
  3520 00:E579: 82 32 00     	brl	L10165
  3521                        L10162:
  3522 00:E57C: A5 0B        	lda	<L244+dest_0
  3523 00:E57E: 85 05        	sta	<L245+tmp_1
  3524 00:E580: 18           	clc
  3525 00:E581: A5 05        	lda	<L245+tmp_1
  3526 00:E583: 65 0F        	adc	<L244+n_0
  3527 00:E585: 85 05        	sta	<L245+tmp_1
  3528 00:E587: A5 0D        	lda	<L244+src_0
  3529 00:E589: 85 07        	sta	<L245+s_1
  3530 00:E58B: 18           	clc
  3531 00:E58C: A5 07        	lda	<L245+s_1
  3532 00:E58E: 65 0F        	adc	<L244+n_0
  3533 00:E590: 85 07        	sta	<L245+s_1
  3534                        L10166:
  3535 00:E592: A5 0F        	lda	<L244+n_0
  3536 00:E594: 85 01        	sta	<R0
  3537 00:E596: C6 0F        	dec	<L244+n_0
  3538 00:E598: A5 01        	lda	<R0
  3539 00:E59A: D0 03        	bne	L248
  3540 00:E59C: 82 0F 00     	brl	L10167
  3541                        L248:
  3542 00:E59F: C6 05        	dec	<L245+tmp_1
  3543 00:E5A1: C6 07        	dec	<L245+s_1
  3544 00:E5A3: E2 20        	sep	#$20
  3545                        	longa	off
  3546 00:E5A5: B2 07        	lda	(<L245+s_1)
  3547 00:E5A7: 92 05        	sta	(<L245+tmp_1)
  3548 00:E5A9: C2 20        	rep	#$20
  3549                        	longa	on
  3550 00:E5AB: 82 E4 FF     	brl	L10166
  3551                        L10167:
  3552                        L10165:
  3553                        L249:
  3554 00:E5AE: A5 09        	lda	<L244+1
  3555 00:E5B0: 85 0F        	sta	<L244+1+6
  3556 00:E5B2: 2B           	pld
  3557 00:E5B3: 3B           	tsc
  3558 00:E5B4: 18           	clc
  3559 00:E5B5: 69 0E 00     	adc	#L244+6
  3560 00:E5B8: 1B           	tcs
  3561 00:E5B9: 60           	rts
  3562             00000008   L244	equ	8
  3563             00000005   L245	equ	5
  3564                        
  3565                        strcpy:
  3566                        	longa	on
  3567                        	longi	on
  3568 00:E5BA: 3B           	tsc
  3569 00:E5BB: 38           	sec
  3570 00:E5BC: E9 06 00     	sbc	#L250
  3571 00:E5BF: 1B           	tcs
  3572 00:E5C0: 0B           	phd
  3573 00:E5C1: 5B           	tcd
  3574             00000003   p1_0	set	3
  3575             00000005   p2_0	set	5
  3576             00000000   c_1	set	0
  3577             00000001   flg_1	set	1
  3578 00:E5C2: E2 20        	sep	#$20
  3579                        	longa	off
  3580 00:E5C4: 64 06        	stz	<L251+flg_1
  3581 00:E5C6: C2 20        	rep	#$20
  3582                        	longa	on
  3583                        L10168:
  3584 00:E5C8: A5 0B        	lda	<L250+p2_0
  3585 00:E5CA: 85 01        	sta	<R0
  3586 00:E5CC: E6 0B        	inc	<L250+p2_0
  3587 00:E5CE: E2 20        	sep	#$20
  3588                        	longa	off
  3589 00:E5D0: B2 01        	lda	(<R0)
  3590 00:E5D2: 85 05        	sta	<L251+c_1
  3591 00:E5D4: C2 20        	rep	#$20
  3592                        	longa	on
  3593 00:E5D6: A5 05        	lda	<L251+c_1
  3594 00:E5D8: 29 FF 00     	and	#$ff
  3595 00:E5DB: D0 03        	bne	L252
  3596 00:E5DD: 82 50 00     	brl	L10169
  3597                        L252:
  3598 00:E5E0: E2 20        	sep	#$20
  3599                        	longa	off
  3600 00:E5E2: A5 05        	lda	<L251+c_1
  3601 00:E5E4: C9 22        	cmp	#<$22
  3602 00:E5E6: C2 20        	rep	#$20
  3603                        	longa	on
  3604 00:E5E8: F0 03        	beq	L253
  3605 00:E5EA: 82 0A 00     	brl	L10170
  3606                        L253:
  3607 00:E5ED: E2 20        	sep	#$20
  3608                        	longa	off
  3609 00:E5EF: A5 06        	lda	<L251+flg_1
  3610 00:E5F1: 49 01        	eor	#<$1
  3611 00:E5F3: 85 06        	sta	<L251+flg_1
  3612 00:E5F5: C2 20        	rep	#$20
  3613                        	longa	on
  3614                        L10170:
  3615 00:E5F7: E2 20        	sep	#$20
  3616                        	longa	off
  3617 00:E5F9: A5 05        	lda	<L251+c_1
  3618 00:E5FB: C9 61        	cmp	#<$61
  3619 00:E5FD: C2 20        	rep	#$20
  3620                        	longa	on
  3621 00:E5FF: B0 03        	bcs	L254
  3622 00:E601: 82 1F 00     	brl	L10171
  3623                        L254:
  3624 00:E604: E2 20        	sep	#$20
  3625                        	longa	off
  3626 00:E606: A9 7A        	lda	#$7a
  3627 00:E608: C5 05        	cmp	<L251+c_1
  3628 00:E60A: C2 20        	rep	#$20
  3629                        	longa	on
  3630 00:E60C: B0 03        	bcs	L255
  3631 00:E60E: 82 12 00     	brl	L10171
  3632                        L255:
  3633 00:E611: A5 06        	lda	<L251+flg_1
  3634 00:E613: 29 FF 00     	and	#$ff
  3635 00:E616: F0 03        	beq	L256
  3636 00:E618: 82 08 00     	brl	L10171
  3637                        L256:
  3638 00:E61B: E2 20        	sep	#$20
  3639                        	longa	off
  3640 00:E61D: A9 20        	lda	#$20
  3641 00:E61F: 14 05        	trb	<L251+c_1
  3642 00:E621: C2 20        	rep	#$20
  3643                        	longa	on
  3644                        L10171:
  3645 00:E623: E2 20        	sep	#$20
  3646                        	longa	off
  3647 00:E625: A5 05        	lda	<L251+c_1
  3648 00:E627: 92 09        	sta	(<L250+p1_0)
  3649 00:E629: C2 20        	rep	#$20
  3650                        	longa	on
  3651 00:E62B: E6 09        	inc	<L250+p1_0
  3652 00:E62D: 82 98 FF     	brl	L10168
  3653                        L10169:
  3654 00:E630: E2 20        	sep	#$20
  3655                        	longa	off
  3656 00:E632: A9 00        	lda	#$0
  3657 00:E634: 92 09        	sta	(<L250+p1_0)
  3658 00:E636: C2 20        	rep	#$20
  3659                        	longa	on
  3660                        L257:
  3661 00:E638: A5 07        	lda	<L250+1
  3662 00:E63A: 85 0B        	sta	<L250+1+4
  3663 00:E63C: 2B           	pld
  3664 00:E63D: 3B           	tsc
  3665 00:E63E: 18           	clc
  3666 00:E63F: 69 0A 00     	adc	#L250+4
  3667 00:E642: 1B           	tcs
  3668 00:E643: 60           	rts
  3669             00000006   L250	equ	6
  3670             00000005   L251	equ	5
  3671                        
  3672                        strlen:
  3673                        	longa	on
  3674                        	longi	on
  3675 00:E644: 3B           	tsc
  3676 00:E645: 38           	sec
  3677 00:E646: E9 06 00     	sbc	#L258
  3678 00:E649: 1B           	tcs
  3679 00:E64A: 0B           	phd
  3680 00:E64B: 5B           	tcd
  3681             00000003   s_0	set	3
  3682             00000000   num_1	set	0
  3683 00:E64C: 64 05        	stz	<L259+num_1
  3684                        L10172:
  3685 00:E64E: A5 09        	lda	<L258+s_0
  3686 00:E650: 85 01        	sta	<R0
  3687 00:E652: E6 09        	inc	<L258+s_0
  3688 00:E654: B2 01        	lda	(<R0)
  3689 00:E656: 29 FF 00     	and	#$ff
  3690 00:E659: D0 03        	bne	L260
  3691 00:E65B: 82 05 00     	brl	L10173
  3692                        L260:
  3693 00:E65E: E6 05        	inc	<L259+num_1
  3694 00:E660: 82 EB FF     	brl	L10172
  3695                        L10173:
  3696 00:E663: A5 05        	lda	<L259+num_1
  3697                        L261:
  3698 00:E665: A8           	tay
  3699 00:E666: A5 07        	lda	<L258+1
  3700 00:E668: 85 09        	sta	<L258+1+2
  3701 00:E66A: 2B           	pld
  3702 00:E66B: 3B           	tsc
  3703 00:E66C: 18           	clc
  3704 00:E66D: 69 08 00     	adc	#L258+2
  3705 00:E670: 1B           	tcs
  3706 00:E671: 98           	tya
  3707 00:E672: 60           	rts
  3708             00000006   L258	equ	6
  3709             00000005   L259	equ	5
  3710                        
  3711                        getNum:
  3712                        	longa	on
  3713                        	longi	on
  3714 00:E673: 3B           	tsc
  3715 00:E674: 38           	sec
  3716 00:E675: E9 0F 00     	sbc	#L262
  3717 00:E678: 1B           	tcs
  3718 00:E679: 0B           	phd
  3719 00:E67A: 5B           	tcd
  3720             00000003   f_0	set	3
  3721             00000000   c_1	set	0
  3722             00000001   n_1	set	1
  3723 00:E67B: 64 0E        	stz	<L263+n_1
  3724 00:E67D: A9 00 00     	lda	#$0
  3725 00:E680: 92 12        	sta	(<L262+f_0)
  3726 00:E682: AD D0 7D     	lda	pc
  3727 00:E685: 85 01        	sta	<R0
  3728 00:E687: E2 20        	sep	#$20
  3729                        	longa	off
  3730 00:E689: B2 01        	lda	(<R0)
  3731 00:E68B: 85 0D        	sta	<L263+c_1
  3732 00:E68D: C2 20        	rep	#$20
  3733                        	longa	on
  3734                        L10174:
  3735 00:E68F: E2 20        	sep	#$20
  3736                        	longa	off
  3737 00:E691: A5 0D        	lda	<L263+c_1
  3738 00:E693: C9 30        	cmp	#<$30
  3739 00:E695: C2 20        	rep	#$20
  3740                        	longa	on
  3741 00:E697: B0 03        	bcs	L264
  3742 00:E699: 82 44 00     	brl	L10175
  3743                        L264:
  3744 00:E69C: E2 20        	sep	#$20
  3745                        	longa	off
  3746 00:E69E: A9 39        	lda	#$39
  3747 00:E6A0: C5 0D        	cmp	<L263+c_1
  3748 00:E6A2: C2 20        	rep	#$20
  3749                        	longa	on
  3750 00:E6A4: B0 03        	bcs	L265
  3751 00:E6A6: 82 37 00     	brl	L10175
  3752                        L265:
  3753 00:E6A9: A5 0D        	lda	<L263+c_1
  3754 00:E6AB: 29 FF 00     	and	#$ff
  3755 00:E6AE: 85 01        	sta	<R0
  3756 00:E6B0: A5 0E        	lda	<L263+n_1
  3757 00:E6B2: 0A           	asl	A
  3758 00:E6B3: 0A           	asl	A
  3759 00:E6B4: 65 0E        	adc	<L263+n_1
  3760 00:E6B6: 0A           	asl	A
  3761 00:E6B7: 85 05        	sta	<R1
  3762 00:E6B9: 18           	clc
  3763 00:E6BA: A5 05        	lda	<R1
  3764 00:E6BC: 65 01        	adc	<R0
  3765 00:E6BE: 85 09        	sta	<R2
  3766 00:E6C0: 18           	clc
  3767 00:E6C1: A9 D0 FF     	lda	#$ffd0
  3768 00:E6C4: 65 09        	adc	<R2
  3769 00:E6C6: 85 0E        	sta	<L263+n_1
  3770 00:E6C8: EE D0 7D     	inc	pc
  3771 00:E6CB: AD D0 7D     	lda	pc
  3772 00:E6CE: 85 01        	sta	<R0
  3773 00:E6D0: E2 20        	sep	#$20
  3774                        	longa	off
  3775 00:E6D2: B2 01        	lda	(<R0)
  3776 00:E6D4: 85 0D        	sta	<L263+c_1
  3777 00:E6D6: C2 20        	rep	#$20
  3778                        	longa	on
  3779 00:E6D8: A9 01 00     	lda	#$1
  3780 00:E6DB: 92 12        	sta	(<L262+f_0)
  3781 00:E6DD: 82 AF FF     	brl	L10174
  3782                        L10175:
  3783 00:E6E0: A5 0E        	lda	<L263+n_1
  3784                        L266:
  3785 00:E6E2: A8           	tay
  3786 00:E6E3: A5 10        	lda	<L262+1
  3787 00:E6E5: 85 12        	sta	<L262+1+2
  3788 00:E6E7: 2B           	pld
  3789 00:E6E8: 3B           	tsc
  3790 00:E6E9: 18           	clc
  3791 00:E6EA: 69 11 00     	adc	#L262+2
  3792 00:E6ED: 1B           	tcs
  3793 00:E6EE: 98           	tya
  3794 00:E6EF: 60           	rts
  3795             0000000F   L262	equ	15
  3796             0000000D   L263	equ	13
  3797                        
  3798                        getHex:
  3799                        	longa	on
  3800                        	longi	on
  3801 00:E6F0: 3B           	tsc
  3802 00:E6F1: 38           	sec
  3803 00:E6F2: E9 10 00     	sbc	#L267
  3804 00:E6F5: 1B           	tcs
  3805 00:E6F6: 0B           	phd
  3806 00:E6F7: 5B           	tcd
  3807             00000003   f_0	set	3
  3808             00000000   c_1	set	0
  3809             00000002   n_1	set	2
  3810 00:E6F8: 64 0F        	stz	<L268+n_1
  3811 00:E6FA: A9 00 00     	lda	#$0
  3812 00:E6FD: 92 13        	sta	(<L267+f_0)
  3813 00:E6FF: AD D0 7D     	lda	pc
  3814 00:E702: 85 01        	sta	<R0
  3815 00:E704: B2 01        	lda	(<R0)
  3816 00:E706: 29 FF 00     	and	#$ff
  3817 00:E709: 85 0D        	sta	<L268+c_1
  3818                        L10176:
  3819 00:E70B: 38           	sec
  3820 00:E70C: A5 0D        	lda	<L268+c_1
  3821 00:E70E: E9 30 00     	sbc	#<$30
  3822 00:E711: 70 03        	bvs	L271
  3823 00:E713: 49 00 80     	eor	#$8000
  3824                        L271:
  3825 00:E716: 30 03        	bmi	L272
  3826 00:E718: 82 10 00     	brl	L270
  3827                        L272:
  3828 00:E71B: 38           	sec
  3829 00:E71C: A9 39 00     	lda	#$39
  3830 00:E71F: E5 0D        	sbc	<L268+c_1
  3831 00:E721: 70 03        	bvs	L273
  3832 00:E723: 49 00 80     	eor	#$8000
  3833                        L273:
  3834 00:E726: 10 03        	bpl	L274
  3835 00:E728: 82 40 00     	brl	L269
  3836                        L274:
  3837                        L270:
  3838 00:E72B: 38           	sec
  3839 00:E72C: A5 0D        	lda	<L268+c_1
  3840 00:E72E: E9 41 00     	sbc	#<$41
  3841 00:E731: 70 03        	bvs	L276
  3842 00:E733: 49 00 80     	eor	#$8000
  3843                        L276:
  3844 00:E736: 30 03        	bmi	L277
  3845 00:E738: 82 10 00     	brl	L275
  3846                        L277:
  3847 00:E73B: 38           	sec
  3848 00:E73C: A9 46 00     	lda	#$46
  3849 00:E73F: E5 0D        	sbc	<L268+c_1
  3850 00:E741: 70 03        	bvs	L278
  3851 00:E743: 49 00 80     	eor	#$8000
  3852                        L278:
  3853 00:E746: 10 03        	bpl	L279
  3854 00:E748: 82 20 00     	brl	L269
  3855                        L279:
  3856                        L275:
  3857 00:E74B: 38           	sec
  3858 00:E74C: A5 0D        	lda	<L268+c_1
  3859 00:E74E: E9 61 00     	sbc	#<$61
  3860 00:E751: 70 03        	bvs	L280
  3861 00:E753: 49 00 80     	eor	#$8000
  3862                        L280:
  3863 00:E756: 30 03        	bmi	L281
  3864 00:E758: 82 86 00     	brl	L10177
  3865                        L281:
  3866 00:E75B: 38           	sec
  3867 00:E75C: A9 66 00     	lda	#$66
  3868 00:E75F: E5 0D        	sbc	<L268+c_1
  3869 00:E761: 70 03        	bvs	L282
  3870 00:E763: 49 00 80     	eor	#$8000
  3871                        L282:
  3872 00:E766: 30 03        	bmi	L283
  3873 00:E768: 82 76 00     	brl	L10177
  3874                        L283:
  3875                        L269:
  3876 00:E76B: A5 0F        	lda	<L268+n_1
  3877 00:E76D: 0A           	asl	A
  3878 00:E76E: 0A           	asl	A
  3879 00:E76F: 0A           	asl	A
  3880 00:E770: 0A           	asl	A
  3881 00:E771: 85 01        	sta	<R0
  3882 00:E773: 38           	sec
  3883 00:E774: A5 0D        	lda	<L268+c_1
  3884 00:E776: E9 41 00     	sbc	#<$41
  3885 00:E779: 70 03        	bvs	L285
  3886 00:E77B: 49 00 80     	eor	#$8000
  3887                        L285:
  3888 00:E77E: 10 03        	bpl	L286
  3889 00:E780: 82 0C 00     	brl	L284
  3890                        L286:
  3891 00:E783: 18           	clc
  3892 00:E784: A9 D0 FF     	lda	#$ffd0
  3893 00:E787: 65 0D        	adc	<L268+c_1
  3894 00:E789: 85 05        	sta	<R1
  3895 00:E78B: A5 05        	lda	<R1
  3896 00:E78D: 80 32        	bra	L287
  3897                        L284:
  3898 00:E78F: 38           	sec
  3899 00:E790: A5 0D        	lda	<L268+c_1
  3900 00:E792: E9 61 00     	sbc	#<$61
  3901 00:E795: 70 03        	bvs	L289
  3902 00:E797: 49 00 80     	eor	#$8000
  3903                        L289:
  3904 00:E79A: 10 03        	bpl	L290
  3905 00:E79C: 82 0C 00     	brl	L288
  3906                        L290:
  3907 00:E79F: 18           	clc
  3908 00:E7A0: A9 BF FF     	lda	#$ffbf
  3909 00:E7A3: 65 0D        	adc	<L268+c_1
  3910 00:E7A5: 85 05        	sta	<R1
  3911 00:E7A7: A5 05        	lda	<R1
  3912 00:E7A9: 80 0A        	bra	L291
  3913                        L288:
  3914 00:E7AB: 18           	clc
  3915 00:E7AC: A9 9F FF     	lda	#$ff9f
  3916 00:E7AF: 65 0D        	adc	<L268+c_1
  3917 00:E7B1: 85 05        	sta	<R1
  3918 00:E7B3: A5 05        	lda	<R1
  3919                        L291:
  3920 00:E7B5: 85 05        	sta	<R1
  3921 00:E7B7: 18           	clc
  3922 00:E7B8: A9 0A 00     	lda	#$a
  3923 00:E7BB: 65 05        	adc	<R1
  3924 00:E7BD: 85 09        	sta	<R2
  3925 00:E7BF: A5 09        	lda	<R2
  3926                        L287:
  3927 00:E7C1: 85 05        	sta	<R1
  3928 00:E7C3: 18           	clc
  3929 00:E7C4: A5 05        	lda	<R1
  3930 00:E7C6: 65 01        	adc	<R0
  3931 00:E7C8: 85 0F        	sta	<L268+n_1
  3932 00:E7CA: EE D0 7D     	inc	pc
  3933 00:E7CD: AD D0 7D     	lda	pc
  3934 00:E7D0: 85 01        	sta	<R0
  3935 00:E7D2: B2 01        	lda	(<R0)
  3936 00:E7D4: 29 FF 00     	and	#$ff
  3937 00:E7D7: 85 0D        	sta	<L268+c_1
  3938 00:E7D9: A9 01 00     	lda	#$1
  3939 00:E7DC: 92 13        	sta	(<L267+f_0)
  3940 00:E7DE: 82 2A FF     	brl	L10176
  3941                        L10177:
  3942 00:E7E1: A5 0F        	lda	<L268+n_1
  3943                        L292:
  3944 00:E7E3: A8           	tay
  3945 00:E7E4: A5 11        	lda	<L267+1
  3946 00:E7E6: 85 13        	sta	<L267+1+2
  3947 00:E7E8: 2B           	pld
  3948 00:E7E9: 3B           	tsc
  3949 00:E7EA: 18           	clc
  3950 00:E7EB: 69 12 00     	adc	#L267+2
  3951 00:E7EE: 1B           	tcs
  3952 00:E7EF: 98           	tya
  3953 00:E7F0: 60           	rts
  3954             00000010   L267	equ	16
  3955             0000000D   L268	equ	13
  3956                        
  3957                        newText:
  3958                        	longa	on
  3959                        	longi	on
  3960 00:E7F1: 3B           	tsc
  3961 00:E7F2: 38           	sec
  3962 00:E7F3: E9 04 00     	sbc	#L293
  3963 00:E7F6: 1B           	tcs
  3964 00:E7F7: 0B           	phd
  3965 00:E7F8: 5B           	tcd
  3966 00:E7F9: AD 50 7C     	lda	var+76
  3967 00:E7FC: 85 01        	sta	<R0
  3968 00:E7FE: E2 20        	sep	#$20
  3969                        	longa	off
  3970 00:E800: B2 01        	lda	(<R0)
  3971 00:E802: C9 FF        	cmp	#<$ff
  3972 00:E804: C2 20        	rep	#$20
  3973                        	longa	on
  3974 00:E806: D0 03        	bne	L295
  3975 00:E808: 82 07 00     	brl	L10178
  3976                        L295:
  3977 00:E80B: AD C7 D2     	lda	t_lock
  3978 00:E80E: 48           	pha
  3979 00:E80F: 20 93 E3     	jsr	er_boot
  3980                        L10178:
  3981 00:E812: 20 1F E8     	jsr	newText1
  3982                        L296:
  3983 00:E815: A8           	tay
  3984 00:E816: 2B           	pld
  3985 00:E817: 3B           	tsc
  3986 00:E818: 18           	clc
  3987 00:E819: 69 04 00     	adc	#L293
  3988 00:E81C: 1B           	tcs
  3989 00:E81D: 98           	tya
  3990 00:E81E: 60           	rts
  3991             00000004   L293	equ	4
  3992             00000005   L294	equ	5
  3993                        
  3994                        newText1:
  3995                        	longa	on
  3996                        	longi	on
  3997 00:E81F: 3B           	tsc
  3998 00:E820: 38           	sec
  3999 00:E821: E9 04 00     	sbc	#L297
  4000 00:E824: 1B           	tcs
  4001 00:E825: 0B           	phd
  4002 00:E826: 5B           	tcd
  4003 00:E827: AD 7E 7C     	lda	var+122
  4004 00:E82A: 8D 50 7C     	sta	var+76
  4005 00:E82D: AD 50 7C     	lda	var+76
  4006 00:E830: 85 01        	sta	<R0
  4007 00:E832: E2 20        	sep	#$20
  4008                        	longa	off
  4009 00:E834: A9 FF        	lda	#$ff
  4010 00:E836: 92 01        	sta	(<R0)
  4011 00:E838: C2 20        	rep	#$20
  4012                        	longa	on
  4013                        L299:
  4014 00:E83A: A8           	tay
  4015 00:E83B: 2B           	pld
  4016 00:E83C: 3B           	tsc
  4017 00:E83D: 18           	clc
  4018 00:E83E: 69 04 00     	adc	#L297
  4019 00:E841: 1B           	tcs
  4020 00:E842: 98           	tya
  4021 00:E843: 60           	rts
  4022             00000004   L297	equ	4
  4023             00000005   L298	equ	5
  4024                        
  4025 00:E844:              	ds	$10000-$
  4026                        	end


      Lines assembled: 4152
      Errors: 0
