     1                        ;;;
     2                        ;;;	TOYOSHIKI TinyBASIC V1.0
     3                        ;;;	(C)2015 Tetsuya Suzuki
     4                        ;;;	https://github.com/vintagechips/ttbasic_lin
     5                        ;;;
     6                        ;;; Ported for MEZW65C-RAM by Akihito Honda. 
     7                        ;;; 2024.10
     8                        ;;;
     9                        ;;; Thanks all.
    10                        ;;;
    11                        
    12                        
    13                        	pl	0
    14                        	pw      132
    15                        	chip    65816
    16                        
    17                        	include "w65c816.inc"
    18                        
    19                        ;;;
    20                        ;;; File header template (BIOS CALL version)
    21                        ;;;	
    22                        
    23             0000C400   PRG_B	EQU	$C400
    24             00000400   WORK_B	EQU	$400
    25             0000E8FF   WORK_END	EQU	$E8FF
    26                        
    27             00000000   USER_PB	equ	0	; program bank = 2
    28             00000000   USER_DB	equ	0	; data bank = 0 (Direct Page area)
    29             00000300   USER_DP	equ	$300
    30             000002FF   USER_SP	equ	USER_DP-1
    31                        
    32             00000000   ZERO_B	EQU	$00
    33                        
    34                        ;-----------------------------------------------------
    35                        ;ZERO page
    36                        ; NOTE
    37                        ;  Since ZERO page is shared with the monitor program,
    38                        ;  you must use a free area.
    39                        ;  See the monitor program.
    40                        ;-----------------------------------------------------
    41                        
    42                        ;	.page0
    43                        ;	ORG	ZERO_B
    44                        
    45                        ;--------------------------------------
    46                        ; Data area
    47                        ;--------------------------------------
    48                        
    49                        	udata
    50                        	org	WORK_B
    51                        
    52             000079B8   BUF_SIZE	equ	31160
    53 00:0400:              listbuf	ds	BUF_SIZE
    54 00:7DB8:              lstki		ds	1
    55 00:7DB9:              lstk		ds	30
    56 00:7DD7:              gstki		ds	1
    57 00:7DD8:              gstk		ds	18
    58 00:7DEA:              cip		ds	2
    59 00:7DEC:              clp		ds	2
    60 00:7DEE:              arr		ds	128
    61 00:7E6E:              var		ds	52
    62 00:7EA2:              ibuf		ds	160
    63 00:7F42:              lbuf		ds	160
    64 00:7FE2:              err		ds	1
    65                        
    66 00:7FE3:              seed	ds	2
    67 00:7FE5:              val_a	ds	2
    68 00:7FE7:              val_x	ds	2
    69 00:7FE9:              val_y	ds	2
    70 00:7FEB:              remn	ds	2
    71 00:7FED:              div_y	ds	2	; quotient
    72 00:7FEF:              div_x	ds	2
    73                        
    74 00:7FF1:              max_off	ds	2
    75 00:7FF3:              deff_p	ds	2
    76 00:7FF5:              min_cmp	ds	2
    77 00:7FF7:              t_base	ds	2
    78                        
    79                        	CODE
    80                        	ORG	PRG_B
    81                        ;--------- MEZW65C_RAM file header --------------------------
    82 00:C400: 00           	db	USER_PB		; program bank:W65C816, 0:W65C02
    83 00:C401: 61 C4        	dw	COLD_START
    84 00:C403: 00           	db	USER_DB		; data bank:W65C816, 0:W65C02
    85 00:C404: 4B C4        	dw	warm_boot
    86                        
    87 00:C406: 00 03        	dw	USER_DP		; DP
    88                        
    89 00:C408: 4D 45 5A 57  mezID:	db	"MEZW65C",0	; Unique ID
       00:C40C: 36 35 43 00 
    90                        
    91                        start_p:	;file load address
    92 00:C410: 00 C4        	dw	PRG_B		; load address (Low)
    93 00:C412: 00           	db	USER_PB		; PBR : program bank(W65C816)
    94 00:C413: 00           	db	0		; reserve
    95                        
    96                        	; define Common memory address
    97 00:C414: 00 00        PIC_IF:	dw	0	; reserve
    98 00:C416: 00 00        	dw	0	; reserve
    99                        
   100 00:C418: 01           SW_816:	db	1	; 0 : W65C02
   101                        			; 1 : W65C816 native mode 
   102                        			; 2 : works in both modes
   103 00:C419: 00           irq_sw	db	0	; 0 : no use IRQ console I/O
   104                        			; 1 : use IRQ timer interrupt driven console I/O
   105 00:C41A: 00 00        reg_tp	dw	0	; monitor reserve (register save pointer)
   106 00:C41C: 00 00        reg_ts	dw	0	; monitor reserve (register table size)
   107 00:C41E: 00           nmi_sw	db	0	; 0 : No NMI support, 1: NMI support
   108 00:C41F: 01           bios_sw	db	1	; 0 : standalone program
   109                        			; 1 : program call bios command
   110                        			; 2 : monitor program (.SYS)
   111                        ;--------- MEZW65C_RAM file header --------------------------
   112                        
   113                        ;;;     Console Driver
   114                        ;;;
   115             00000001   CONIN_NO	equ	1
   116             00000002   CONOUT_NO	equ	2
   117             00000003   CONST_NO	equ	3
   118             000000FF   PRG_END		equ	$FF
   119                        
   120                        c_getch
   121 00:C420: 00 01        	BRK	CONIN_NO
   122 00:C422: 60           	rts
   123                        
   124                        c_kbhit
   125 00:C423: 00 03        	BRK	CONST_NO
   126 00:C425: 60           	rts
   127                        
   128                        ; SP              -> 0          |
   129                        ; PC(Low)           +1          v 
   130                        ; PC(High)          +2   <- SP  0 --> Pull A ( return PC address ) 
   131                        ; init val(Low)     +3          1    (set return address low )  (lda 1,s)
   132                        ; init val(Higj)    +4          2    (set return address high)
   133                        c_putch
   134                        	long_a
+  134 00:C426: C2 20                        rep     #M_FLAG
+  134                                        longa   on
   135 00:C428: A3 03        	lda	3,s	; get init value
   136 00:C42A: 00 02        	BRK	CONOUT_NO
   137 00:C42C: 68           	pla		; get return address
   138 00:C42D: 83 01        	sta	1,s	; set return address
   139 00:C42F: 60           	rts
   140                        
   141                        rand
   142                        	long_a
+  142 00:C430: C2 20                        rep     #M_FLAG
+  142                                        longa   on
   143 00:C432: AD E3 7F     	lda	seed
   144 00:C435: 49 30 96     	eor	#$9630
   145 00:C438: E9 53 65     	sbc	#$6553
   146 00:C43B: 2A           	rol	a
   147 00:C43C: 8D E3 7F     	sta	seed
   148 00:C43F: 60           	rts
   149                        
   150                        ; SP              -> 0          |
   151                        ; PC(Low)           +1          v 
   152                        ; PC(High)          +2   <- SP  0 --> Pull A ( return PC address ) 
   153                        ; init val(Low)     +3          1    (set return address low )  (lda 1,s)
   154                        ; init val(Higj)    +4          2    (set return address high)
   155                        srand
   156                        	long_a
+  156 00:C440: C2 20                        rep     #M_FLAG
+  156                                        longa   on
   157 00:C442: A3 03        	lda	3,s	; get init value
   158 00:C444: 8D E3 7F     	sta	seed
   159 00:C447: 68           	pla		; get return address
   160 00:C448: 83 01        	sta	1,s	; set return address
   161 00:C44A: 60           	rts
   162                        
   163                        warm_boot
   164                        	long_ai
+  164 00:C44B: C2 30                        rep     #M_FLAG|X_FLAG
+  164                                        longa   on
+  164                                        longi   on
   165 00:C44D: A9 FF 02     	lda	#USER_SP
   166 00:C450: 1B           	tas
   167                        	short_a
+  167 00:C451: E2 20                        sep     #M_FLAG
+  167                                        longa   off
   168 00:C453: 9C E2 7F     	stz	err
   169                        	long_a
+  169 00:C456: C2 20                        rep     #M_FLAG
+  169                                        longa   on
   170 00:C458: 20 0C E7     	jsr	error
   171 00:C45B: 20 6E C5     	jsr	newline
   172 00:C45E: 82 8E 23     	brl	L10288
   173                        	
   174                        ; Terminate VTL
   175                        ;mach_fin
   176                        ;	BRK	PRG_END
   177                        ;end_end	bra	end_end
   178                        
   179                        COLD_START
   180                        	long_ai
+  180 00:C461: C2 30                        rep     #M_FLAG|X_FLAG
+  180                                        longa   on
+  180                                        longi   on
   181 00:C463: A9 FF 02     	lda	#USER_SP
   182 00:C466: 1B           	tas
   183 00:C467: F4 00 00     	pea	#0
   184 00:C46A: 20 50 C5     	jsr	main
   185                        
   186                        ; command SYSTEM then ttbasic fin
   187                        
   188                        pg_finish
   189 00:C46D: 00 FF        	BRK	PRG_END
   190 00:C46F: 80 FE        end_end	bra	end_end
   191                        
   192                        mul:
   193                        	longa on
   194                        	longi on
   195                        	
   196 00:C471: 8E E7 7F     	stx	val_x
   197 00:C474: 9C E9 7F     	stz	val_y
   198                        
   199 00:C477: A2 10 00     	ldx	#16
   200 00:C47A: 4A           	lsr	a
   201 00:C47B: 8D E5 7F     	sta	val_a
   202 00:C47E: B0 08        	bcs	add_x
   203                        
   204                        add_loop
   205 00:C480: 0E E7 7F     	asl	val_x
   206 00:C483: 4E E5 7F     	lsr	val_a
   207 00:C486: 90 0A        	bcc	skip_add
   208                        
   209                        add_x
   210 00:C488: AD E9 7F     	lda	val_y
   211 00:C48B: 18           	clc
   212 00:C48C: 6D E7 7F     	adc	val_x
   213 00:C48F: 8D E9 7F     	sta	val_y
   214                        	
   215                        skip_add
   216 00:C492: CA           	dex
   217 00:C493: D0 EB        	bne	add_loop
   218                        
   219                        end_add
   220 00:C495: AD E9 7F     	lda	val_y
   221 00:C498: 60           	rts
   222                        
   223                        ; - - - - - - - - - - - - - - - - - - - - - - - - - - ;
   224                        ; 16-bit unsigned division routine
   225                        ;	div_y /= div_x, {%} = remainder, {>} modified
   226                        ;	div_y /= 0 produces {%} = div_y, div_y = 65535
   227                        ;
   228                        ;	input  A : div_y, X : div_x
   229                        ;	output A : div_y
   230                        div:
   231                        	longa on
   232                        	longi on
   233                        
   234 00:C499: 8D ED 7F     	sta	div_y
   235 00:C49C: 8E EF 7F     	stx	div_x
   236                        
   237 00:C49F: 5A           	phy
   238 00:C4A0: A9 00 00     	lda	#0
   239 00:C4A3: 8D EB 7F     	sta	remn		; {%} = 0
   240 00:C4A6: A0 10 00     	ldy	#16
   241                        div1:
   242 00:C4A9: 0E ED 7F     	asl	div_y		; div_y is gradually replaced with the quotient
   243                        
   244 00:C4AC: 2E EB 7F     	rol	remn		; {%} is gradually replaced with the remainder
   245                        
   246 00:C4AF: AD EB 7F     	lda	remn
   247 00:C4B2: CD EF 7F     	cmp	div_x		; partial remainder >= div_x?
   248                        
   249 00:C4B5: 90 09        	bcc	div2
   250                        
   251 00:C4B7: ED EF 7F     	sbc	div_x
   252 00:C4BA: 8D EB 7F     	sta	remn		; yes: update the partial remainder
   253                        				;	and set the low bit in the partial quotient
   254                        	
   255 00:C4BD: EE ED 7F     	inc	div_y
   256                        
   257                        div2:
   258 00:C4C0: 88           	dey
   259 00:C4C1: D0 E6        	bne	div1		; loop 16 times
   260                        
   261 00:C4C3: AD ED 7F     	lda	div_y		; A = quotient
   262                        
   263 00:C4C6: 7A           	ply
   264 00:C4C7: 60           	rts
   265                        	
   266                        mod:
   267                        	longa on
   268                        	longi on
   269                        
   270 00:C4C8: 8D ED 7F     	sta	div_y
   271 00:C4CB: 8E EF 7F     	stx	div_x
   272                        
   273 00:C4CE: 5A           	phy
   274 00:C4CF: A9 00 00     	lda	#0
   275 00:C4D2: 8D EB 7F     	sta	remn		; {%} = 0
   276 00:C4D5: A0 10 00     	ldy	#16
   277                        mod1:
   278 00:C4D8: 0E ED 7F     	asl	div_y		; div_y is gradually replaced with the quotient
   279                        
   280 00:C4DB: 2E EB 7F     	rol	remn		; {%} is gradually replaced with the remainder
   281                        
   282 00:C4DE: AD EB 7F     	lda	remn
   283 00:C4E1: CD EF 7F     	cmp	div_x		; partial remainder >= div_x?
   284                        
   285 00:C4E4: 90 09        	bcc	mod2
   286                        
   287 00:C4E6: ED EF 7F     	sbc	div_x
   288 00:C4E9: 8D EB 7F     	sta	remn		; yes: update the partial remainder
   289                        				;	and set the low bit in the partial quotient
   290                        	
   291 00:C4EC: EE ED 7F     	inc	div_y
   292                        
   293                        mod2:
   294 00:C4EF: 88           	dey
   295 00:C4F0: D0 E6        	bne	mod1		; loop 16 times
   296                        
   297 00:C4F2: AD EB 7F     	lda	remn
   298                        
   299 00:C4F5: 7A           	ply
   300 00:C4F6: 60           	rts
   301                        ;
   302                        ;switch - case: jump function
   303                        ;ex)
   304                        ;pppp
   305                        ;	db	01
   306                        ;	db	00
   307                        ;	db	00
   308                        ;	db	00
   309                        ;	db	label1(L)-1
   310                        ;	db	label1(H)
   311                        ;	db	label2(L)-1
   312                        ;	db	label2(H)
   313                        ;
   314                        ; input A : switch( A )
   315                        
   316                        	longa	on
   317                        	longi	on
   318                        swt:
   319 00:C4F7: FA           	plx
   320                        ;SP->
   321                        ;  |	PC(L)-1 : pppp(L) -1
   322                        ;  v
   323                        ;SP->	PC(H)   : pppp(H)
   324                        
   325 00:C4F8: E8           	inx	; get table address
   326                        
   327 00:C4F9: BC 00 00     	ldy	0,x	; Y : get no of tables
   328                        
   329 00:C4FC: E8           	inx
   330 00:C4FD: E8           	inx		; compare value address
   331                        loop_sw:
   332 00:C4FE: DD 00 00     	cmp	0,x
   333 00:C501: F0 0C        	beq	go_jmp
   334 00:C503: E8           	inx		;+1
   335 00:C504: E8           	inx		;+2
   336 00:C505: E8           	inx		;+3
   337 00:C506: E8           	inx		;+4 : next address of compare value
   338 00:C507: 88           	dey
   339 00:C508: D0 F4        	bne	loop_sw
   340                        	; no much
   341                        psh_ret:
   342 00:C50A: BD 00 00     	lda	0,x	; escape switch 
   343 00:C50D: 48           	pha		; push jump address
   344 00:C50E: 60           	rts
   345                        	
   346                        go_jmp:
   347 00:C50F: E8           	inx
   348 00:C510: E8           	inx
   349 00:C511: 80 F7        	bra	psh_ret
   350                        
   351                        fsw:
   352                        	longa on
   353                        	longi on
   354                        	
   355 00:C513: FA           	plx
   356                        ;SP->
   357                        ;  |	PC(L)-1 : L10124(L) -1
   358                        ;  v
   359                        ;SP->	PC(H)   : L10124(H)
   360                        
   361 00:C514: A8           	tay
   362 00:C515: E8           	inx		; get table address -> dw 15
   363 00:C516: BD 00 00     	lda	0,x	; get Comparison minimum : 15
   364 00:C519: 8D F5 7F     	sta	min_cmp	; (15)
   365 00:C51C: E8           	inx
   366 00:C51D: E8           	inx		; table address -> dw 22
   367 00:C51E: BD 00 00     	lda	0,x	; get Maximum jump table offset
   368 00:C521: 18           	clc
   369 00:C522: 6D F5 7F     	adc	min_cmp
   370 00:C525: 8D F1 7F     	sta	max_off	; (15+22)
   371 00:C528: E8           	inx
   372 00:C529: E8           	inx		; get default jump address
   373 00:C52A: 8E F3 7F     	stx	deff_p
   374 00:C52D: E8           	inx
   375 00:C52E: E8           	inx		; get t_base address
   376 00:C52F: 8E F7 7F     	stx	t_base
   377                        
   378 00:C532: 98           	tya
   379 00:C533: CD F5 7F     	cmp	min_cmp
   380 00:C536: 30 13        	bmi	def_jmp	; less
   381 00:C538: CD F1 7F     	cmp	max_off	; 
   382 00:C53B: 10 0E        	bpl	def_jmp
   383                        	
   384 00:C53D: 38           	sec
   385 00:C53E: ED F5 7F     	sbc	min_cmp
   386 00:C541: 0A           	asl
   387 00:C542: 6D F7 7F     	adc	t_base	; get jump address
   388                        fsw_jmp:
   389 00:C545: AA           	tax
   390 00:C546: BD 00 00     	lda	0,x
   391 00:C549: 48           	pha
   392 00:C54A: 60           	rts		; jump desired address
   393                        
   394                        def_jmp:
   395 00:C54B: AD F3 7F     	lda	deff_p	; get default jump address
   396 00:C54E: 80 F5        	bra	fsw_jmp
   397                        
   398                        ;;;;;;;;;;;;;;;;;;;;;;;;;;;;;;;;;;;;;;;;;;;
   399                        ;
   400                        ; C code main program
   401                        ;
   402                        ;;;;;;;;;;;;;;;;;;;;;;;;;;;;;;;;;;;;;;;;;;;
   403                        ;:ts=8
   404             00000001   R0	equ	1
   405             00000005   R1	equ	5
   406             00000009   R2	equ	9
   407             0000000D   R3	equ	13
   408                        
   409                        main:
   410                        	longa	on
   411                        	longi	on
   412 00:C550: 3B           	tsc
   413 00:C551: 38           	sec
   414 00:C552: E9 00 00     	sbc	#L2
   415 00:C555: 1B           	tcs
   416 00:C556: 0B           	phd
   417 00:C557: 5B           	tcd
   418 00:C558: F4 66 19     	pea	#<$1966
   419 00:C55B: 20 40 C4     	jsr	srand
   420 00:C55E: 20 C2 E7     	jsr	basic
   421 00:C561: A9 00 00     	lda	#$0
   422                        L4:
   423 00:C564: A8           	tay
   424 00:C565: 2B           	pld
   425 00:C566: 3B           	tsc
   426 00:C567: 18           	clc
   427 00:C568: 69 00 00     	adc	#L2
   428 00:C56B: 1B           	tcs
   429 00:C56C: 98           	tya
   430 00:C56D: 60           	rts
   431             00000000   L2	equ	0
   432             00000001   L3	equ	1
   433                        
   434                        newline:
   435                        	longa	on
   436                        	longi	on
   437 00:C56E: 3B           	tsc
   438 00:C56F: 38           	sec
   439 00:C570: E9 00 00     	sbc	#L5
   440 00:C573: 1B           	tcs
   441 00:C574: 0B           	phd
   442 00:C575: 5B           	tcd
   443 00:C576: F4 0D 00     	pea	#<$d
   444 00:C579: 20 26 C4     	jsr	c_putch
   445 00:C57C: F4 0A 00     	pea	#<$a
   446 00:C57F: 20 26 C4     	jsr	c_putch
   447                        L7:
   448 00:C582: 2B           	pld
   449 00:C583: 3B           	tsc
   450 00:C584: 18           	clc
   451 00:C585: 69 00 00     	adc	#L5
   452 00:C588: 1B           	tcs
   453 00:C589: 60           	rts
   454             00000000   L5	equ	0
   455             00000001   L6	equ	1
   456                        
   457                        getrnd:
   458                        	longa	on
   459                        	longi	on
   460 00:C58A: 3B           	tsc
   461 00:C58B: 38           	sec
   462 00:C58C: E9 04 00     	sbc	#L8
   463 00:C58F: 1B           	tcs
   464 00:C590: 0B           	phd
   465 00:C591: 5B           	tcd
   466             00000003   value_0	set	3
   467 00:C592: 20 30 C4     	jsr	rand
   468                        ;	lda	<R0
   469 00:C595: A6 07        	ldx	<L8+value_0
   470                        
   471 00:C597: 20 C8 C4     	jsr	mod
   472 00:C59A: 85 01        	sta	<R0
   473 00:C59C: A5 01        	lda	<R0
   474 00:C59E: 1A           	ina
   475                        L10:
   476 00:C59F: A8           	tay
   477 00:C5A0: A5 05        	lda	<L8+1
   478 00:C5A2: 85 07        	sta	<L8+1+2
   479 00:C5A4: 2B           	pld
   480 00:C5A5: 3B           	tsc
   481 00:C5A6: 18           	clc
   482 00:C5A7: 69 06 00     	adc	#L8+2
   483 00:C5AA: 1B           	tcs
   484 00:C5AB: 98           	tya
   485 00:C5AC: 60           	rts
   486             00000004   L8	equ	4
   487             00000005   L9	equ	5
   488                        
   489                        kwtbl:
   490 00:C5AD: F3 C5        	dw	L1+0
   491 00:C5AF: F8 C5        	dw	L1+5
   492 00:C5B1: FE C5        	dw	L1+11
   493 00:C5B3: 05 C6        	dw	L1+18
   494 00:C5B5: 09 C6        	dw	L1+22
   495 00:C5B7: 0C C6        	dw	L1+25
   496 00:C5B9: 11 C6        	dw	L1+30
   497 00:C5BB: 16 C6        	dw	L1+35
   498 00:C5BD: 19 C6        	dw	L1+38
   499 00:C5BF: 1D C6        	dw	L1+42
   500 00:C5C1: 22 C6        	dw	L1+47
   501 00:C5C3: 28 C6        	dw	L1+53
   502 00:C5C5: 2E C6        	dw	L1+59
   503 00:C5C7: 32 C6        	dw	L1+63
   504 00:C5C9: 34 C6        	dw	L1+65
   505 00:C5CB: 36 C6        	dw	L1+67
   506 00:C5CD: 38 C6        	dw	L1+69
   507 00:C5CF: 3A C6        	dw	L1+71
   508 00:C5D1: 3C C6        	dw	L1+73
   509 00:C5D3: 3E C6        	dw	L1+75
   510 00:C5D5: 40 C6        	dw	L1+77
   511 00:C5D7: 42 C6        	dw	L1+79
   512 00:C5D9: 45 C6        	dw	L1+82
   513 00:C5DB: 47 C6        	dw	L1+84
   514 00:C5DD: 49 C6        	dw	L1+86
   515 00:C5DF: 4B C6        	dw	L1+88
   516 00:C5E1: 4E C6        	dw	L1+91
   517 00:C5E3: 50 C6        	dw	L1+93
   518 00:C5E5: 52 C6        	dw	L1+95
   519 00:C5E7: 56 C6        	dw	L1+99
   520 00:C5E9: 5A C6        	dw	L1+103
   521 00:C5EB: 5F C6        	dw	L1+108
   522 00:C5ED: 64 C6        	dw	L1+113
   523 00:C5EF: 68 C6        	dw	L1+117
   524 00:C5F1: 6C C6        	dw	L1+121
   525                        
   526                        L1:
   527 00:C5F3: 47 4F 54 4F  	db	$47,$4F,$54,$4F,$00,$47,$4F,$53,$55,$42,$00,$52,$45,$54,$55
       00:C5F7: 00 47 4F 53 
       00:C5FB: 55 42 00 52 
       00:C5FF: 45 54 55 
   528 00:C602: 52 4E 00 46  	db	$52,$4E,$00,$46,$4F,$52,$00,$54,$4F,$00,$53,$54,$45,$50,$00
       00:C606: 4F 52 00 54 
       00:C60A: 4F 00 53 54 
       00:C60E: 45 50 00 
   529 00:C611: 4E 45 58 54  	db	$4E,$45,$58,$54,$00,$49,$46,$00,$52,$45,$4D,$00,$53,$54,$4F
       00:C615: 00 49 46 00 
       00:C619: 52 45 4D 00 
       00:C61D: 53 54 4F 
   530 00:C620: 50 00 49 4E  	db	$50,$00,$49,$4E,$50,$55,$54,$00,$50,$52,$49,$4E,$54,$00,$4C
       00:C624: 50 55 54 00 
       00:C628: 50 52 49 4E 
       00:C62C: 54 00 4C 
   531 00:C62F: 45 54 00 2C  	db	$45,$54,$00,$2C,$00,$3B,$00,$2D,$00,$2B,$00,$2A,$00,$2F,$00
       00:C633: 00 3B 00 2D 
       00:C637: 00 2B 00 2A 
       00:C63B: 00 2F 00 
   532 00:C63E: 28 00 29 00  	db	$28,$00,$29,$00,$3E,$3D,$00,$23,$00,$3E,$00,$3D,$00,$3C,$3D
       00:C642: 3E 3D 00 23 
       00:C646: 00 3E 00 3D 
       00:C64A: 00 3C 3D 
   533 00:C64D: 00 3C 00 40  	db	$00,$3C,$00,$40,$00,$52,$4E,$44,$00,$41,$42,$53,$00,$53,$49
       00:C651: 00 52 4E 44 
       00:C655: 00 41 42 53 
       00:C659: 00 53 49 
   534 00:C65C: 5A 45 00 4C  	db	$5A,$45,$00,$4C,$49,$53,$54,$00,$52,$55,$4E,$00,$4E,$45,$57
       00:C660: 49 53 54 00 
       00:C664: 52 55 4E 00 
       00:C668: 4E 45 57 
   535 00:C66B: 00 53 59 53  	db	$00,$53,$59,$53,$54,$45,$4D,$00
       00:C66F: 54 45 4D 00 
   536                        
   537                        i_nsa:
   538 00:C673: 02 09 0D 0F  	db	$2,$9,$D,$F,$10,$11,$12,$13,$14,$15
       00:C677: 10 11 12 13 
       00:C67B: 14 15 
   539 00:C67D: 16 17 18 19  	db	$16,$17,$18,$19,$1A,$1B,$1C,$1D,$1E
       00:C681: 1A 1B 1C 1D 
       00:C685: 1E 
   540                        
   541                        i_nsb:
   542 00:C686: 0F 10 11 12  	db	$F,$10,$11,$12,$13,$14,$15,$16,$17,$18
       00:C68A: 13 14 15 16 
       00:C68E: 17 18 
   543 00:C690: 19 1A 0D 0E  	db	$19,$1A,$D,$E,$26
       00:C694: 26 
   544                        
   545                        sstyle:
   546                        	longa	on
   547                        	longi	on
   548 00:C695: 3B           	tsc
   549 00:C696: 38           	sec
   550 00:C697: E9 04 00     	sbc	#L12
   551 00:C69A: 1B           	tcs
   552 00:C69B: 0B           	phd
   553 00:C69C: 5B           	tcd
   554             00000003   code_0	set	3
   555             00000005   table_0	set	5
   556             00000007   count_0	set	7
   557                        L10001:
   558 00:C69D: E2 20        	sep	#$20
   559                        	longa	off
   560 00:C69F: A5 0B        	lda	<L12+count_0
   561 00:C6A1: 85 01        	sta	<R0
   562 00:C6A3: C2 20        	rep	#$20
   563                        	longa	on
   564 00:C6A5: E2 20        	sep	#$20
   565                        	longa	off
   566 00:C6A7: C6 0B        	dec	<L12+count_0
   567 00:C6A9: C2 20        	rep	#$20
   568                        	longa	on
   569 00:C6AB: A5 01        	lda	<R0
   570 00:C6AD: 29 FF 00     	and	#$ff
   571 00:C6B0: D0 03        	bne	L14
   572 00:C6B2: 82 2A 00     	brl	L10002
   573                        L14:
   574 00:C6B5: A5 0B        	lda	<L12+count_0
   575 00:C6B7: 29 FF 00     	and	#$ff
   576 00:C6BA: 85 01        	sta	<R0
   577 00:C6BC: E2 20        	sep	#$20
   578                        	longa	off
   579 00:C6BE: A5 07        	lda	<L12+code_0
   580 00:C6C0: A4 01        	ldy	<R0
   581 00:C6C2: D1 09        	cmp	(<L12+table_0),Y
   582 00:C6C4: C2 20        	rep	#$20
   583                        	longa	on
   584 00:C6C6: F0 03        	beq	L15
   585 00:C6C8: 82 11 00     	brl	L10003
   586                        L15:
   587 00:C6CB: A9 01 00     	lda	#$1
   588                        L16:
   589 00:C6CE: A8           	tay
   590 00:C6CF: A5 05        	lda	<L12+1
   591 00:C6D1: 85 0B        	sta	<L12+1+6
   592 00:C6D3: 2B           	pld
   593 00:C6D4: 3B           	tsc
   594 00:C6D5: 18           	clc
   595 00:C6D6: 69 0A 00     	adc	#L12+6
   596 00:C6D9: 1B           	tcs
   597 00:C6DA: 98           	tya
   598 00:C6DB: 60           	rts
   599                        L10003:
   600 00:C6DC: 82 BE FF     	brl	L10001
   601                        L10002:
   602 00:C6DF: A9 00 00     	lda	#$0
   603 00:C6E2: 82 E9 FF     	brl	L16
   604             00000004   L12	equ	4
   605             00000005   L13	equ	5
   606                        
   607                        errmsg:
   608 00:C6E5: 13 C7        	dw	L11+0
   609 00:C6E7: 16 C7        	dw	L11+3
   610 00:C6E9: 27 C7        	dw	L11+20
   611 00:C6EB: 30 C7        	dw	L11+29
   612 00:C6ED: 47 C7        	dw	L11+52
   613 00:C6EF: 59 C7        	dw	L11+70
   614 00:C6F1: 63 C7        	dw	L11+80
   615 00:C6F3: 79 C7        	dw	L11+102
   616 00:C6F5: 90 C7        	dw	L11+125
   617 00:C6F7: A4 C7        	dw	L11+145
   618 00:C6F9: B5 C7        	dw	L11+162
   619 00:C6FB: CA C7        	dw	L11+183
   620 00:C6FD: DC C7        	dw	L11+201
   621 00:C6FF: F1 C7        	dw	L11+222
   622 00:C701: 00 C8        	dw	L11+237
   623 00:C703: 15 C8        	dw	L11+258
   624 00:C705: 2A C8        	dw	L11+279
   625 00:C707: 40 C8        	dw	L11+301
   626 00:C709: 54 C8        	dw	L11+321
   627 00:C70B: 61 C8        	dw	L11+334
   628 00:C70D: 71 C8        	dw	L11+350
   629 00:C70F: 7E C8        	dw	L11+363
   630 00:C711: 8D C8        	dw	L11+378
   631                        
   632                        L11:
   633 00:C713: 4F 4B 00 44  	db	$4F,$4B,$00,$44,$65,$76,$69,$73,$69,$6F,$6E,$20,$62,$79,$20
       00:C717: 65 76 69 73 
       00:C71B: 69 6F 6E 20 
       00:C71F: 62 79 20 
   634 00:C722: 7A 65 72 6F  	db	$7A,$65,$72,$6F,$00,$4F,$76,$65,$72,$66,$6C,$6F,$77,$00,$53
       00:C726: 00 4F 76 65 
       00:C72A: 72 66 6C 6F 
       00:C72E: 77 00 53 
   635 00:C731: 75 62 73 63  	db	$75,$62,$73,$63,$72,$69,$70,$74,$20,$6F,$75,$74,$20,$6F,$66
       00:C735: 72 69 70 74 
       00:C739: 20 6F 75 74 
       00:C73D: 20 6F 66 
   636 00:C740: 20 72 61 6E  	db	$20,$72,$61,$6E,$67,$65,$00,$49,$63,$6F,$64,$65,$20,$62,$75
       00:C744: 67 65 00 49 
       00:C748: 63 6F 64 65 
       00:C74C: 20 62 75 
   637 00:C74F: 66 66 65 72  	db	$66,$66,$65,$72,$20,$66,$75,$6C,$6C,$00,$4C,$69,$73,$74,$20
       00:C753: 20 66 75 6C 
       00:C757: 6C 00 4C 69 
       00:C75B: 73 74 20 
   638 00:C75E: 66 75 6C 6C  	db	$66,$75,$6C,$6C,$00,$47,$4F,$53,$55,$42,$20,$74,$6F,$6F,$20
       00:C762: 00 47 4F 53 
       00:C766: 55 42 20 74 
       00:C76A: 6F 6F 20 
   639 00:C76D: 6D 61 6E 79  	db	$6D,$61,$6E,$79,$20,$6E,$65,$73,$74,$65,$64,$00,$52,$45,$54
       00:C771: 20 6E 65 73 
       00:C775: 74 65 64 00 
       00:C779: 52 45 54 
   640 00:C77C: 55 52 4E 20  	db	$55,$52,$4E,$20,$73,$74,$61,$63,$6B,$20,$75,$6E,$64,$65,$72
       00:C780: 73 74 61 63 
       00:C784: 6B 20 75 6E 
       00:C788: 64 65 72 
   641 00:C78B: 66 6C 6F 77  	db	$66,$6C,$6F,$77,$00,$46,$4F,$52,$20,$74,$6F,$6F,$20,$6D,$61
       00:C78F: 00 46 4F 52 
       00:C793: 20 74 6F 6F 
       00:C797: 20 6D 61 
   642 00:C79A: 6E 79 20 6E  	db	$6E,$79,$20,$6E,$65,$73,$74,$65,$64,$00,$4E,$45,$58,$54,$20
       00:C79E: 65 73 74 65 
       00:C7A2: 64 00 4E 45 
       00:C7A6: 58 54 20 
   643 00:C7A9: 77 69 74 68  	db	$77,$69,$74,$68,$6F,$75,$74,$20,$46,$4F,$52,$00,$4E,$45,$58
       00:C7AD: 6F 75 74 20 
       00:C7B1: 46 4F 52 00 
       00:C7B5: 4E 45 58 
   644 00:C7B8: 54 20 77 69  	db	$54,$20,$77,$69,$74,$68,$6F,$75,$74,$20,$63,$6F,$75,$6E,$74
       00:C7BC: 74 68 6F 75 
       00:C7C0: 74 20 63 6F 
       00:C7C4: 75 6E 74 
   645 00:C7C7: 65 72 00 4E  	db	$65,$72,$00,$4E,$45,$58,$54,$20,$6D,$69,$73,$6D,$61,$74,$63
       00:C7CB: 45 58 54 20 
       00:C7CF: 6D 69 73 6D 
       00:C7D3: 61 74 63 
   646 00:C7D6: 68 20 46 4F  	db	$68,$20,$46,$4F,$52,$00,$46,$4F,$52,$20,$77,$69,$74,$68,$6F
       00:C7DA: 52 00 46 4F 
       00:C7DE: 52 20 77 69 
       00:C7E2: 74 68 6F 
   647 00:C7E5: 75 74 20 76  	db	$75,$74,$20,$76,$61,$72,$69,$61,$62,$6C,$65,$00,$46,$4F,$52
       00:C7E9: 61 72 69 61 
       00:C7ED: 62 6C 65 00 
       00:C7F1: 46 4F 52 
   648 00:C7F4: 20 77 69 74  	db	$20,$77,$69,$74,$68,$6F,$75,$74,$20,$54,$4F,$00,$4C,$45,$54
       00:C7F8: 68 6F 75 74 
       00:C7FC: 20 54 4F 00 
       00:C800: 4C 45 54 
   649 00:C803: 20 77 69 74  	db	$20,$77,$69,$74,$68,$6F,$75,$74,$20,$76,$61,$72,$69,$61,$62
       00:C807: 68 6F 75 74 
       00:C80B: 20 76 61 72 
       00:C80F: 69 61 62 
   650 00:C812: 6C 65 00 49  	db	$6C,$65,$00,$49,$46,$20,$77,$69,$74,$68,$6F,$75,$74,$20,$63
       00:C816: 46 20 77 69 
       00:C81A: 74 68 6F 75 
       00:C81E: 74 20 63 
   651 00:C821: 6F 6E 64 69  	db	$6F,$6E,$64,$69,$74,$69,$6F,$6E,$00,$55,$6E,$64,$65,$66,$69
       00:C825: 74 69 6F 6E 
       00:C829: 00 55 6E 64 
       00:C82D: 65 66 69 
   652 00:C830: 6E 65 64 20  	db	$6E,$65,$64,$20,$6C,$69,$6E,$65,$20,$6E,$75,$6D,$62,$65,$72
       00:C834: 6C 69 6E 65 
       00:C838: 20 6E 75 6D 
       00:C83C: 62 65 72 
   653 00:C83F: 00 27 28 27  	db	$00,$27,$28,$27,$20,$6F,$72,$20,$27,$29,$27,$20,$65,$78,$70
       00:C843: 20 6F 72 20 
       00:C847: 27 29 27 20 
       00:C84B: 65 78 70 
   654 00:C84E: 65 63 74 65  	db	$65,$63,$74,$65,$64,$00,$27,$3D,$27,$20,$65,$78,$70,$65,$63
       00:C852: 64 00 27 3D 
       00:C856: 27 20 65 78 
       00:C85A: 70 65 63 
   655 00:C85D: 74 65 64 00  	db	$74,$65,$64,$00,$49,$6C,$6C,$65,$67,$61,$6C,$20,$63,$6F,$6D
       00:C861: 49 6C 6C 65 
       00:C865: 67 61 6C 20 
       00:C869: 63 6F 6D 
   656 00:C86C: 6D 61 6E 64  	db	$6D,$61,$6E,$64,$00,$53,$79,$6E,$74,$61,$78,$20,$65,$72,$72
       00:C870: 00 53 79 6E 
       00:C874: 74 61 78 20 
       00:C878: 65 72 72 
   657 00:C87B: 6F 72 00 49  	db	$6F,$72,$00,$49,$6E,$74,$65,$72,$6E,$61,$6C,$20,$65,$72,$72
       00:C87F: 6E 74 65 72 
       00:C883: 6E 61 6C 20 
       00:C887: 65 72 72 
   658 00:C88A: 6F 72 00 41  	db	$6F,$72,$00,$41,$62,$6F,$72,$74,$20,$62,$79,$20,$5B,$45,$53
       00:C88E: 62 6F 72 74 
       00:C892: 20 62 79 20 
       00:C896: 5B 45 53 
   659 00:C899: 43 5D 00     	db	$43,$5D,$00
   660                        
   661                        c_toupper:
   662                        	longa	on
   663                        	longi	on
   664 00:C89C: 3B           	tsc
   665 00:C89D: 38           	sec
   666 00:C89E: E9 08 00     	sbc	#L18
   667 00:C8A1: 1B           	tcs
   668 00:C8A2: 0B           	phd
   669 00:C8A3: 5B           	tcd
   670             00000003   c_0	set	3
   671 00:C8A4: E2 20        	sep	#$20
   672                        	longa	off
   673 00:C8A6: A9 7A        	lda	#$7a
   674 00:C8A8: C5 0B        	cmp	<L18+c_0
   675 00:C8AA: C2 20        	rep	#$20
   676                        	longa	on
   677 00:C8AC: B0 03        	bcs	L21
   678 00:C8AE: 82 20 00     	brl	L20
   679                        L21:
   680 00:C8B1: E2 20        	sep	#$20
   681                        	longa	off
   682 00:C8B3: A5 0B        	lda	<L18+c_0
   683 00:C8B5: C9 61        	cmp	#<$61
   684 00:C8B7: C2 20        	rep	#$20
   685                        	longa	on
   686 00:C8B9: B0 03        	bcs	L22
   687 00:C8BB: 82 13 00     	brl	L20
   688                        L22:
   689 00:C8BE: A5 0B        	lda	<L18+c_0
   690 00:C8C0: 29 FF 00     	and	#$ff
   691 00:C8C3: 85 01        	sta	<R0
   692 00:C8C5: 18           	clc
   693 00:C8C6: A9 E0 FF     	lda	#$ffe0
   694 00:C8C9: 65 01        	adc	<R0
   695 00:C8CB: 85 05        	sta	<R1
   696 00:C8CD: A5 05        	lda	<R1
   697 00:C8CF: 80 09        	bra	L23
   698                        L20:
   699 00:C8D1: A5 0B        	lda	<L18+c_0
   700 00:C8D3: 29 FF 00     	and	#$ff
   701 00:C8D6: 85 01        	sta	<R0
   702 00:C8D8: A5 01        	lda	<R0
   703                        L23:
   704 00:C8DA: 85 01        	sta	<R0
   705 00:C8DC: A5 01        	lda	<R0
   706 00:C8DE: 29 FF 00     	and	#$ff
   707                        L24:
   708 00:C8E1: A8           	tay
   709 00:C8E2: A5 09        	lda	<L18+1
   710 00:C8E4: 85 0B        	sta	<L18+1+2
   711 00:C8E6: 2B           	pld
   712 00:C8E7: 3B           	tsc
   713 00:C8E8: 18           	clc
   714 00:C8E9: 69 0A 00     	adc	#L18+2
   715 00:C8EC: 1B           	tcs
   716 00:C8ED: 98           	tya
   717 00:C8EE: 60           	rts
   718             00000008   L18	equ	8
   719             00000009   L19	equ	9
   720                        
   721                        c_isprint:
   722                        	longa	on
   723                        	longi	on
   724 00:C8EF: 3B           	tsc
   725 00:C8F0: 38           	sec
   726 00:C8F1: E9 04 00     	sbc	#L25
   727 00:C8F4: 1B           	tcs
   728 00:C8F5: 0B           	phd
   729 00:C8F6: 5B           	tcd
   730             00000003   c_0	set	3
   731 00:C8F7: 64 01        	stz	<R0
   732 00:C8F9: E2 20        	sep	#$20
   733                        	longa	off
   734 00:C8FB: A5 07        	lda	<L25+c_0
   735 00:C8FD: C9 20        	cmp	#<$20
   736 00:C8FF: C2 20        	rep	#$20
   737                        	longa	on
   738 00:C901: B0 03        	bcs	L28
   739 00:C903: 82 0F 00     	brl	L27
   740                        L28:
   741 00:C906: E2 20        	sep	#$20
   742                        	longa	off
   743 00:C908: A9 7E        	lda	#$7e
   744 00:C90A: C5 07        	cmp	<L25+c_0
   745 00:C90C: C2 20        	rep	#$20
   746                        	longa	on
   747 00:C90E: B0 03        	bcs	L29
   748 00:C910: 82 02 00     	brl	L27
   749                        L29:
   750 00:C913: E6 01        	inc	<R0
   751                        L27:
   752 00:C915: A5 01        	lda	<R0
   753 00:C917: 29 FF 00     	and	#$ff
   754                        L30:
   755 00:C91A: A8           	tay
   756 00:C91B: A5 05        	lda	<L25+1
   757 00:C91D: 85 07        	sta	<L25+1+2
   758 00:C91F: 2B           	pld
   759 00:C920: 3B           	tsc
   760 00:C921: 18           	clc
   761 00:C922: 69 06 00     	adc	#L25+2
   762 00:C925: 1B           	tcs
   763 00:C926: 98           	tya
   764 00:C927: 60           	rts
   765             00000004   L25	equ	4
   766             00000005   L26	equ	5
   767                        
   768                        c_isspace:
   769                        	longa	on
   770                        	longi	on
   771 00:C928: 3B           	tsc
   772 00:C929: 38           	sec
   773 00:C92A: E9 04 00     	sbc	#L31
   774 00:C92D: 1B           	tcs
   775 00:C92E: 0B           	phd
   776 00:C92F: 5B           	tcd
   777             00000003   c_0	set	3
   778 00:C930: 64 01        	stz	<R0
   779 00:C932: E2 20        	sep	#$20
   780                        	longa	off
   781 00:C934: A5 07        	lda	<L31+c_0
   782 00:C936: C9 20        	cmp	#<$20
   783 00:C938: C2 20        	rep	#$20
   784                        	longa	on
   785 00:C93A: D0 03        	bne	L35
   786 00:C93C: 82 1A 00     	brl	L34
   787                        L35:
   788 00:C93F: E2 20        	sep	#$20
   789                        	longa	off
   790 00:C941: A9 0D        	lda	#$d
   791 00:C943: C5 07        	cmp	<L31+c_0
   792 00:C945: C2 20        	rep	#$20
   793                        	longa	on
   794 00:C947: B0 03        	bcs	L36
   795 00:C949: 82 0F 00     	brl	L33
   796                        L36:
   797 00:C94C: E2 20        	sep	#$20
   798                        	longa	off
   799 00:C94E: A5 07        	lda	<L31+c_0
   800 00:C950: C9 09        	cmp	#<$9
   801 00:C952: C2 20        	rep	#$20
   802                        	longa	on
   803 00:C954: B0 03        	bcs	L37
   804 00:C956: 82 02 00     	brl	L33
   805                        L37:
   806                        L34:
   807 00:C959: E6 01        	inc	<R0
   808                        L33:
   809 00:C95B: A5 01        	lda	<R0
   810 00:C95D: 29 FF 00     	and	#$ff
   811                        L38:
   812 00:C960: A8           	tay
   813 00:C961: A5 05        	lda	<L31+1
   814 00:C963: 85 07        	sta	<L31+1+2
   815 00:C965: 2B           	pld
   816 00:C966: 3B           	tsc
   817 00:C967: 18           	clc
   818 00:C968: 69 06 00     	adc	#L31+2
   819 00:C96B: 1B           	tcs
   820 00:C96C: 98           	tya
   821 00:C96D: 60           	rts
   822             00000004   L31	equ	4
   823             00000005   L32	equ	5
   824                        
   825                        c_isdigit:
   826                        	longa	on
   827                        	longi	on
   828 00:C96E: 3B           	tsc
   829 00:C96F: 38           	sec
   830 00:C970: E9 04 00     	sbc	#L39
   831 00:C973: 1B           	tcs
   832 00:C974: 0B           	phd
   833 00:C975: 5B           	tcd
   834             00000003   c_0	set	3
   835 00:C976: 64 01        	stz	<R0
   836 00:C978: E2 20        	sep	#$20
   837                        	longa	off
   838 00:C97A: A9 39        	lda	#$39
   839 00:C97C: C5 07        	cmp	<L39+c_0
   840 00:C97E: C2 20        	rep	#$20
   841                        	longa	on
   842 00:C980: B0 03        	bcs	L42
   843 00:C982: 82 0F 00     	brl	L41
   844                        L42:
   845 00:C985: E2 20        	sep	#$20
   846                        	longa	off
   847 00:C987: A5 07        	lda	<L39+c_0
   848 00:C989: C9 30        	cmp	#<$30
   849 00:C98B: C2 20        	rep	#$20
   850                        	longa	on
   851 00:C98D: B0 03        	bcs	L43
   852 00:C98F: 82 02 00     	brl	L41
   853                        L43:
   854 00:C992: E6 01        	inc	<R0
   855                        L41:
   856 00:C994: A5 01        	lda	<R0
   857 00:C996: 29 FF 00     	and	#$ff
   858                        L44:
   859 00:C999: A8           	tay
   860 00:C99A: A5 05        	lda	<L39+1
   861 00:C99C: 85 07        	sta	<L39+1+2
   862 00:C99E: 2B           	pld
   863 00:C99F: 3B           	tsc
   864 00:C9A0: 18           	clc
   865 00:C9A1: 69 06 00     	adc	#L39+2
   866 00:C9A4: 1B           	tcs
   867 00:C9A5: 98           	tya
   868 00:C9A6: 60           	rts
   869             00000004   L39	equ	4
   870             00000005   L40	equ	5
   871                        
   872                        c_isalpha:
   873                        	longa	on
   874                        	longi	on
   875 00:C9A7: 3B           	tsc
   876 00:C9A8: 38           	sec
   877 00:C9A9: E9 04 00     	sbc	#L45
   878 00:C9AC: 1B           	tcs
   879 00:C9AD: 0B           	phd
   880 00:C9AE: 5B           	tcd
   881             00000003   c_0	set	3
   882 00:C9AF: 64 01        	stz	<R0
   883 00:C9B1: E2 20        	sep	#$20
   884                        	longa	off
   885 00:C9B3: A9 7A        	lda	#$7a
   886 00:C9B5: C5 07        	cmp	<L45+c_0
   887 00:C9B7: C2 20        	rep	#$20
   888                        	longa	on
   889 00:C9B9: B0 03        	bcs	L50
   890 00:C9BB: 82 0D 00     	brl	L49
   891                        L50:
   892 00:C9BE: E2 20        	sep	#$20
   893                        	longa	off
   894 00:C9C0: A5 07        	lda	<L45+c_0
   895 00:C9C2: C9 61        	cmp	#<$61
   896 00:C9C4: C2 20        	rep	#$20
   897                        	longa	on
   898 00:C9C6: 90 03        	bcc	L51
   899 00:C9C8: 82 1A 00     	brl	L48
   900                        L51:
   901                        L49:
   902 00:C9CB: E2 20        	sep	#$20
   903                        	longa	off
   904 00:C9CD: A9 5A        	lda	#$5a
   905 00:C9CF: C5 07        	cmp	<L45+c_0
   906 00:C9D1: C2 20        	rep	#$20
   907                        	longa	on
   908 00:C9D3: B0 03        	bcs	L52
   909 00:C9D5: 82 0F 00     	brl	L47
   910                        L52:
   911 00:C9D8: E2 20        	sep	#$20
   912                        	longa	off
   913 00:C9DA: A5 07        	lda	<L45+c_0
   914 00:C9DC: C9 41        	cmp	#<$41
   915 00:C9DE: C2 20        	rep	#$20
   916                        	longa	on
   917 00:C9E0: B0 03        	bcs	L53
   918 00:C9E2: 82 02 00     	brl	L47
   919                        L53:
   920                        L48:
   921 00:C9E5: E6 01        	inc	<R0
   922                        L47:
   923 00:C9E7: A5 01        	lda	<R0
   924 00:C9E9: 29 FF 00     	and	#$ff
   925                        L54:
   926 00:C9EC: A8           	tay
   927 00:C9ED: A5 05        	lda	<L45+1
   928 00:C9EF: 85 07        	sta	<L45+1+2
   929 00:C9F1: 2B           	pld
   930 00:C9F2: 3B           	tsc
   931 00:C9F3: 18           	clc
   932 00:C9F4: 69 06 00     	adc	#L45+2
   933 00:C9F7: 1B           	tcs
   934 00:C9F8: 98           	tya
   935 00:C9F9: 60           	rts
   936             00000004   L45	equ	4
   937             00000005   L46	equ	5
   938                        
   939                        c_puts:
   940                        	longa	on
   941                        	longi	on
   942 00:C9FA: 3B           	tsc
   943 00:C9FB: 38           	sec
   944 00:C9FC: E9 04 00     	sbc	#L55
   945 00:C9FF: 1B           	tcs
   946 00:CA00: 0B           	phd
   947 00:CA01: 5B           	tcd
   948             00000003   s_0	set	3
   949                        L10004:
   950 00:CA02: B2 07        	lda	(<L55+s_0)
   951 00:CA04: 29 FF 00     	and	#$ff
   952 00:CA07: D0 03        	bne	L57
   953 00:CA09: 82 0F 00     	brl	L10005
   954                        L57:
   955 00:CA0C: A5 07        	lda	<L55+s_0
   956 00:CA0E: 85 01        	sta	<R0
   957 00:CA10: E6 07        	inc	<L55+s_0
   958 00:CA12: B2 01        	lda	(<R0)
   959 00:CA14: 48           	pha
   960 00:CA15: 20 26 C4     	jsr	c_putch
   961 00:CA18: 82 E7 FF     	brl	L10004
   962                        L10005:
   963                        L58:
   964 00:CA1B: A5 05        	lda	<L55+1
   965 00:CA1D: 85 07        	sta	<L55+1+2
   966 00:CA1F: 2B           	pld
   967 00:CA20: 3B           	tsc
   968 00:CA21: 18           	clc
   969 00:CA22: 69 06 00     	adc	#L55+2
   970 00:CA25: 1B           	tcs
   971 00:CA26: 60           	rts
   972             00000004   L55	equ	4
   973             00000005   L56	equ	5
   974                        
   975                        c_gets:
   976                        	longa	on
   977                        	longi	on
   978 00:CA27: 3B           	tsc
   979 00:CA28: 38           	sec
   980 00:CA29: E9 06 00     	sbc	#L59
   981 00:CA2C: 1B           	tcs
   982 00:CA2D: 0B           	phd
   983 00:CA2E: 5B           	tcd
   984             00000000   c_1	set	0
   985             00000001   len_1	set	1
   986 00:CA2F: E2 20        	sep	#$20
   987                        	longa	off
   988 00:CA31: 64 06        	stz	<L60+len_1
   989 00:CA33: C2 20        	rep	#$20
   990                        	longa	on
   991                        L10006:
   992 00:CA35: 20 20 C4     	jsr	c_getch
   993 00:CA38: E2 20        	sep	#$20
   994                        	longa	off
   995 00:CA3A: 85 05        	sta	<L60+c_1
   996 00:CA3C: C2 20        	rep	#$20
   997                        	longa	on
   998 00:CA3E: E2 20        	sep	#$20
   999                        	longa	off
  1000 00:CA40: A5 05        	lda	<L60+c_1
  1001 00:CA42: C9 0D        	cmp	#<$d
  1002 00:CA44: C2 20        	rep	#$20
  1003                        	longa	on
  1004 00:CA46: D0 03        	bne	L61
  1005 00:CA48: 82 91 00     	brl	L10007
  1006                        L61:
  1007 00:CA4B: E2 20        	sep	#$20
  1008                        	longa	off
  1009 00:CA4D: A5 05        	lda	<L60+c_1
  1010 00:CA4F: C9 09        	cmp	#<$9
  1011 00:CA51: C2 20        	rep	#$20
  1012                        	longa	on
  1013 00:CA53: F0 03        	beq	L62
  1014 00:CA55: 82 08 00     	brl	L10008
  1015                        L62:
  1016 00:CA58: E2 20        	sep	#$20
  1017                        	longa	off
  1018 00:CA5A: A9 20        	lda	#$20
  1019 00:CA5C: 85 05        	sta	<L60+c_1
  1020 00:CA5E: C2 20        	rep	#$20
  1021                        	longa	on
  1022                        L10008:
  1023 00:CA60: E2 20        	sep	#$20
  1024                        	longa	off
  1025 00:CA62: A5 05        	lda	<L60+c_1
  1026 00:CA64: C9 08        	cmp	#<$8
  1027 00:CA66: C2 20        	rep	#$20
  1028                        	longa	on
  1029 00:CA68: D0 03        	bne	L64
  1030 00:CA6A: 82 0D 00     	brl	L63
  1031                        L64:
  1032 00:CA6D: E2 20        	sep	#$20
  1033                        	longa	off
  1034 00:CA6F: A5 05        	lda	<L60+c_1
  1035 00:CA71: C9 7F        	cmp	#<$7f
  1036 00:CA73: C2 20        	rep	#$20
  1037                        	longa	on
  1038 00:CA75: F0 03        	beq	L65
  1039 00:CA77: 82 28 00     	brl	L10009
  1040                        L65:
  1041                        L63:
  1042 00:CA7A: E2 20        	sep	#$20
  1043                        	longa	off
  1044 00:CA7C: A9 00        	lda	#$0
  1045 00:CA7E: C5 06        	cmp	<L60+len_1
  1046 00:CA80: C2 20        	rep	#$20
  1047                        	longa	on
  1048 00:CA82: 90 03        	bcc	L66
  1049 00:CA84: 82 1B 00     	brl	L10009
  1050                        L66:
  1051 00:CA87: E2 20        	sep	#$20
  1052                        	longa	off
  1053 00:CA89: C6 06        	dec	<L60+len_1
  1054 00:CA8B: C2 20        	rep	#$20
  1055                        	longa	on
  1056 00:CA8D: F4 08 00     	pea	#<$8
  1057 00:CA90: 20 26 C4     	jsr	c_putch
  1058 00:CA93: F4 20 00     	pea	#<$20
  1059 00:CA96: 20 26 C4     	jsr	c_putch
  1060 00:CA99: F4 08 00     	pea	#<$8
  1061 00:CA9C: 20 26 C4     	jsr	c_putch
  1062 00:CA9F: 82 37 00     	brl	L10010
  1063                        L10009:
  1064 00:CAA2: D4 05        	pei	<L60+c_1
  1065 00:CAA4: 20 EF C8     	jsr	c_isprint
  1066 00:CAA7: 29 FF 00     	and	#$ff
  1067 00:CAAA: D0 03        	bne	L67
  1068 00:CAAC: 82 2A 00     	brl	L10011
  1069                        L67:
  1070 00:CAAF: E2 20        	sep	#$20
  1071                        	longa	off
  1072 00:CAB1: A5 06        	lda	<L60+len_1
  1073 00:CAB3: C9 9F        	cmp	#<$9f
  1074 00:CAB5: C2 20        	rep	#$20
  1075                        	longa	on
  1076 00:CAB7: 90 03        	bcc	L68
  1077 00:CAB9: 82 1D 00     	brl	L10011
  1078                        L68:
  1079 00:CABC: A5 06        	lda	<L60+len_1
  1080 00:CABE: 29 FF 00     	and	#$ff
  1081 00:CAC1: 85 01        	sta	<R0
  1082 00:CAC3: E2 20        	sep	#$20
  1083                        	longa	off
  1084 00:CAC5: A5 05        	lda	<L60+c_1
  1085 00:CAC7: A6 01        	ldx	<R0
  1086 00:CAC9: 9D 42 7F     	sta	lbuf,X
  1087 00:CACC: C2 20        	rep	#$20
  1088                        	longa	on
  1089 00:CACE: E2 20        	sep	#$20
  1090                        	longa	off
  1091 00:CAD0: E6 06        	inc	<L60+len_1
  1092 00:CAD2: C2 20        	rep	#$20
  1093                        	longa	on
  1094 00:CAD4: D4 05        	pei	<L60+c_1
  1095 00:CAD6: 20 26 C4     	jsr	c_putch
  1096                        L10011:
  1097                        L10010:
  1098 00:CAD9: 82 59 FF     	brl	L10006
  1099                        L10007:
  1100 00:CADC: 20 6E C5     	jsr	newline
  1101 00:CADF: A5 06        	lda	<L60+len_1
  1102 00:CAE1: 29 FF 00     	and	#$ff
  1103 00:CAE4: 85 01        	sta	<R0
  1104 00:CAE6: E2 20        	sep	#$20
  1105                        	longa	off
  1106 00:CAE8: A9 00        	lda	#$0
  1107 00:CAEA: A6 01        	ldx	<R0
  1108 00:CAEC: 9D 42 7F     	sta	lbuf,X
  1109 00:CAEF: C2 20        	rep	#$20
  1110                        	longa	on
  1111 00:CAF1: E2 20        	sep	#$20
  1112                        	longa	off
  1113 00:CAF3: A9 00        	lda	#$0
  1114 00:CAF5: C5 06        	cmp	<L60+len_1
  1115 00:CAF7: C2 20        	rep	#$20
  1116                        	longa	on
  1117 00:CAF9: 90 03        	bcc	L69
  1118 00:CAFB: 82 39 00     	brl	L10012
  1119                        L69:
  1120                        L10013:
  1121 00:CAFE: E2 20        	sep	#$20
  1122                        	longa	off
  1123 00:CB00: C6 06        	dec	<L60+len_1
  1124 00:CB02: C2 20        	rep	#$20
  1125                        	longa	on
  1126 00:CB04: A5 06        	lda	<L60+len_1
  1127 00:CB06: 29 FF 00     	and	#$ff
  1128 00:CB09: 85 01        	sta	<R0
  1129 00:CB0B: A6 01        	ldx	<R0
  1130 00:CB0D: BD 42 7F     	lda	lbuf,X
  1131 00:CB10: 48           	pha
  1132 00:CB11: 20 28 C9     	jsr	c_isspace
  1133 00:CB14: 29 FF 00     	and	#$ff
  1134 00:CB17: D0 03        	bne	L70
  1135 00:CB19: 82 03 00     	brl	L10014
  1136                        L70:
  1137 00:CB1C: 82 DF FF     	brl	L10013
  1138                        L10014:
  1139 00:CB1F: E2 20        	sep	#$20
  1140                        	longa	off
  1141 00:CB21: E6 06        	inc	<L60+len_1
  1142 00:CB23: C2 20        	rep	#$20
  1143                        	longa	on
  1144 00:CB25: A5 06        	lda	<L60+len_1
  1145 00:CB27: 29 FF 00     	and	#$ff
  1146 00:CB2A: 85 01        	sta	<R0
  1147 00:CB2C: E2 20        	sep	#$20
  1148                        	longa	off
  1149 00:CB2E: A9 00        	lda	#$0
  1150 00:CB30: A6 01        	ldx	<R0
  1151 00:CB32: 9D 42 7F     	sta	lbuf,X
  1152 00:CB35: C2 20        	rep	#$20
  1153                        	longa	on
  1154                        L10012:
  1155                        L71:
  1156 00:CB37: 2B           	pld
  1157 00:CB38: 3B           	tsc
  1158 00:CB39: 18           	clc
  1159 00:CB3A: 69 06 00     	adc	#L59
  1160 00:CB3D: 1B           	tcs
  1161 00:CB3E: 60           	rts
  1162             00000006   L59	equ	6
  1163             00000005   L60	equ	5
  1164                        
  1165                        putnum:
  1166                        	longa	on
  1167                        	longi	on
  1168 00:CB3F: 3B           	tsc
  1169 00:CB40: 38           	sec
  1170 00:CB41: E9 0A 00     	sbc	#L72
  1171 00:CB44: 1B           	tcs
  1172 00:CB45: 0B           	phd
  1173 00:CB46: 5B           	tcd
  1174             00000003   value_0	set	3
  1175             00000005   d_0	set	5
  1176             00000000   i_1	set	0
  1177             00000001   sign_1	set	1
  1178 00:CB47: A5 0D        	lda	<L72+value_0
  1179 00:CB49: 30 03        	bmi	L74
  1180 00:CB4B: 82 13 00     	brl	L10015
  1181                        L74:
  1182 00:CB4E: E2 20        	sep	#$20
  1183                        	longa	off
  1184 00:CB50: A9 01        	lda	#$1
  1185 00:CB52: 85 0A        	sta	<L73+sign_1
  1186 00:CB54: C2 20        	rep	#$20
  1187                        	longa	on
  1188 00:CB56: 38           	sec
  1189 00:CB57: A9 00 00     	lda	#$0
  1190 00:CB5A: E5 0D        	sbc	<L72+value_0
  1191 00:CB5C: 85 0D        	sta	<L72+value_0
  1192 00:CB5E: 82 06 00     	brl	L10016
  1193                        L10015:
  1194 00:CB61: E2 20        	sep	#$20
  1195                        	longa	off
  1196 00:CB63: 64 0A        	stz	<L73+sign_1
  1197 00:CB65: C2 20        	rep	#$20
  1198                        	longa	on
  1199                        L10016:
  1200 00:CB67: E2 20        	sep	#$20
  1201                        	longa	off
  1202 00:CB69: 9C 48 7F     	stz	lbuf+6
  1203 00:CB6C: C2 20        	rep	#$20
  1204                        	longa	on
  1205 00:CB6E: E2 20        	sep	#$20
  1206                        	longa	off
  1207 00:CB70: A9 06        	lda	#$6
  1208 00:CB72: 85 09        	sta	<L73+i_1
  1209 00:CB74: C2 20        	rep	#$20
  1210                        	longa	on
  1211                        L10019:
  1212 00:CB76: E2 20        	sep	#$20
  1213                        	longa	off
  1214 00:CB78: C6 09        	dec	<L73+i_1
  1215 00:CB7A: C2 20        	rep	#$20
  1216                        	longa	on
  1217 00:CB7C: A5 09        	lda	<L73+i_1
  1218 00:CB7E: 29 FF 00     	and	#$ff
  1219 00:CB81: 85 01        	sta	<R0
  1220 00:CB83: A5 0D        	lda	<L72+value_0
  1221 00:CB85: A2 0A 00     	ldx	#<$a
  1222 00:CB88: 20 C8 C4     	jsr	mod
  1223 00:CB8B: 85 05        	sta	<R1
  1224 00:CB8D: 18           	clc
  1225 00:CB8E: A9 30 00     	lda	#$30
  1226 00:CB91: 65 05        	adc	<R1
  1227 00:CB93: E2 20        	sep	#$20
  1228                        	longa	off
  1229 00:CB95: A6 01        	ldx	<R0
  1230 00:CB97: 9D 42 7F     	sta	lbuf,X
  1231 00:CB9A: C2 20        	rep	#$20
  1232                        	longa	on
  1233 00:CB9C: A5 0D        	lda	<L72+value_0
  1234 00:CB9E: A2 0A 00     	ldx	#<$a
  1235 00:CBA1: 20 99 C4     	jsr	div
  1236 00:CBA4: 85 0D        	sta	<L72+value_0
  1237                        L10017:
  1238 00:CBA6: 38           	sec
  1239 00:CBA7: A9 00 00     	lda	#$0
  1240 00:CBAA: E5 0D        	sbc	<L72+value_0
  1241 00:CBAC: 70 03        	bvs	L75
  1242 00:CBAE: 49 00 80     	eor	#$8000
  1243                        L75:
  1244 00:CBB1: 30 03        	bmi	L76
  1245 00:CBB3: 82 C0 FF     	brl	L10019
  1246                        L76:
  1247                        L10018:
  1248 00:CBB6: A5 0A        	lda	<L73+sign_1
  1249 00:CBB8: 29 FF 00     	and	#$ff
  1250 00:CBBB: D0 03        	bne	L77
  1251 00:CBBD: 82 18 00     	brl	L10020
  1252                        L77:
  1253 00:CBC0: E2 20        	sep	#$20
  1254                        	longa	off
  1255 00:CBC2: C6 09        	dec	<L73+i_1
  1256 00:CBC4: C2 20        	rep	#$20
  1257                        	longa	on
  1258 00:CBC6: A5 09        	lda	<L73+i_1
  1259 00:CBC8: 29 FF 00     	and	#$ff
  1260 00:CBCB: 85 01        	sta	<R0
  1261 00:CBCD: E2 20        	sep	#$20
  1262                        	longa	off
  1263 00:CBCF: A9 2D        	lda	#$2d
  1264 00:CBD1: A6 01        	ldx	<R0
  1265 00:CBD3: 9D 42 7F     	sta	lbuf,X
  1266 00:CBD6: C2 20        	rep	#$20
  1267                        	longa	on
  1268                        L10020:
  1269                        L10021:
  1270 00:CBD8: A5 09        	lda	<L73+i_1
  1271 00:CBDA: 29 FF 00     	and	#$ff
  1272 00:CBDD: 85 01        	sta	<R0
  1273 00:CBDF: 38           	sec
  1274 00:CBE0: A9 06 00     	lda	#$6
  1275 00:CBE3: E5 01        	sbc	<R0
  1276 00:CBE5: 85 05        	sta	<R1
  1277 00:CBE7: 38           	sec
  1278 00:CBE8: A5 05        	lda	<R1
  1279 00:CBEA: E5 0F        	sbc	<L72+d_0
  1280 00:CBEC: 70 03        	bvs	L78
  1281 00:CBEE: 49 00 80     	eor	#$8000
  1282                        L78:
  1283 00:CBF1: 10 03        	bpl	L79
  1284 00:CBF3: 82 0B 00     	brl	L10022
  1285                        L79:
  1286 00:CBF6: F4 20 00     	pea	#<$20
  1287 00:CBF9: 20 26 C4     	jsr	c_putch
  1288 00:CBFC: C6 0F        	dec	<L72+d_0
  1289 00:CBFE: 82 D7 FF     	brl	L10021
  1290                        L10022:
  1291 00:CC01: A5 09        	lda	<L73+i_1
  1292 00:CC03: 29 FF 00     	and	#$ff
  1293 00:CC06: 85 01        	sta	<R0
  1294 00:CC08: 18           	clc
  1295 00:CC09: A9 42 7F     	lda	#<lbuf
  1296 00:CC0C: 65 01        	adc	<R0
  1297 00:CC0E: 85 05        	sta	<R1
  1298 00:CC10: D4 05        	pei	<R1
  1299 00:CC12: 20 FA C9     	jsr	c_puts
  1300                        L80:
  1301 00:CC15: A5 0B        	lda	<L72+1
  1302 00:CC17: 85 0F        	sta	<L72+1+4
  1303 00:CC19: 2B           	pld
  1304 00:CC1A: 3B           	tsc
  1305 00:CC1B: 18           	clc
  1306 00:CC1C: 69 0E 00     	adc	#L72+4
  1307 00:CC1F: 1B           	tcs
  1308 00:CC20: 60           	rts
  1309             0000000A   L72	equ	10
  1310             00000009   L73	equ	9
  1311                        
  1312                        getnum:
  1313                        	longa	on
  1314                        	longi	on
  1315 00:CC21: 3B           	tsc
  1316 00:CC22: 38           	sec
  1317 00:CC23: E9 17 00     	sbc	#L81
  1318 00:CC26: 1B           	tcs
  1319 00:CC27: 0B           	phd
  1320 00:CC28: 5B           	tcd
  1321             00000000   value_1	set	0
  1322             00000002   tmp_1	set	2
  1323             00000004   c_1	set	4
  1324             00000005   len_1	set	5
  1325             00000006   sign_1	set	6
  1326 00:CC29: E2 20        	sep	#$20
  1327                        	longa	off
  1328 00:CC2B: 64 16        	stz	<L82+len_1
  1329 00:CC2D: C2 20        	rep	#$20
  1330                        	longa	on
  1331                        L10023:
  1332 00:CC2F: 20 20 C4     	jsr	c_getch
  1333 00:CC32: E2 20        	sep	#$20
  1334                        	longa	off
  1335 00:CC34: 85 15        	sta	<L82+c_1
  1336 00:CC36: C2 20        	rep	#$20
  1337                        	longa	on
  1338 00:CC38: E2 20        	sep	#$20
  1339                        	longa	off
  1340 00:CC3A: A5 15        	lda	<L82+c_1
  1341 00:CC3C: C9 0D        	cmp	#<$d
  1342 00:CC3E: C2 20        	rep	#$20
  1343                        	longa	on
  1344 00:CC40: D0 03        	bne	L83
  1345 00:CC42: 82 A0 00     	brl	L10024
  1346                        L83:
  1347 00:CC45: E2 20        	sep	#$20
  1348                        	longa	off
  1349 00:CC47: A5 15        	lda	<L82+c_1
  1350 00:CC49: C9 08        	cmp	#<$8
  1351 00:CC4B: C2 20        	rep	#$20
  1352                        	longa	on
  1353 00:CC4D: D0 03        	bne	L85
  1354 00:CC4F: 82 0D 00     	brl	L84
  1355                        L85:
  1356 00:CC52: E2 20        	sep	#$20
  1357                        	longa	off
  1358 00:CC54: A5 15        	lda	<L82+c_1
  1359 00:CC56: C9 7F        	cmp	#<$7f
  1360 00:CC58: C2 20        	rep	#$20
  1361                        	longa	on
  1362 00:CC5A: F0 03        	beq	L86
  1363 00:CC5C: 82 28 00     	brl	L10025
  1364                        L86:
  1365                        L84:
  1366 00:CC5F: E2 20        	sep	#$20
  1367                        	longa	off
  1368 00:CC61: A9 00        	lda	#$0
  1369 00:CC63: C5 16        	cmp	<L82+len_1
  1370 00:CC65: C2 20        	rep	#$20
  1371                        	longa	on
  1372 00:CC67: 90 03        	bcc	L87
  1373 00:CC69: 82 1B 00     	brl	L10025
  1374                        L87:
  1375 00:CC6C: E2 20        	sep	#$20
  1376                        	longa	off
  1377 00:CC6E: C6 16        	dec	<L82+len_1
  1378 00:CC70: C2 20        	rep	#$20
  1379                        	longa	on
  1380 00:CC72: F4 08 00     	pea	#<$8
  1381 00:CC75: 20 26 C4     	jsr	c_putch
  1382 00:CC78: F4 20 00     	pea	#<$20
  1383 00:CC7B: 20 26 C4     	jsr	c_putch
  1384 00:CC7E: F4 08 00     	pea	#<$8
  1385 00:CC81: 20 26 C4     	jsr	c_putch
  1386 00:CC84: 82 5B 00     	brl	L10026
  1387                        L10025:
  1388 00:CC87: A5 16        	lda	<L82+len_1
  1389 00:CC89: 29 FF 00     	and	#$ff
  1390 00:CC8C: F0 03        	beq	L90
  1391 00:CC8E: 82 1A 00     	brl	L89
  1392                        L90:
  1393 00:CC91: E2 20        	sep	#$20
  1394                        	longa	off
  1395 00:CC93: A5 15        	lda	<L82+c_1
  1396 00:CC95: C9 2B        	cmp	#<$2b
  1397 00:CC97: C2 20        	rep	#$20
  1398                        	longa	on
  1399 00:CC99: D0 03        	bne	L91
  1400 00:CC9B: 82 27 00     	brl	L88
  1401                        L91:
  1402 00:CC9E: E2 20        	sep	#$20
  1403                        	longa	off
  1404 00:CCA0: A5 15        	lda	<L82+c_1
  1405 00:CCA2: C9 2D        	cmp	#<$2d
  1406 00:CCA4: C2 20        	rep	#$20
  1407                        	longa	on
  1408 00:CCA6: D0 03        	bne	L92
  1409 00:CCA8: 82 1A 00     	brl	L88
  1410                        L92:
  1411                        L89:
  1412 00:CCAB: E2 20        	sep	#$20
  1413                        	longa	off
  1414 00:CCAD: A5 16        	lda	<L82+len_1
  1415 00:CCAF: C9 06        	cmp	#<$6
  1416 00:CCB1: C2 20        	rep	#$20
  1417                        	longa	on
  1418 00:CCB3: 90 03        	bcc	L93
  1419 00:CCB5: 82 2A 00     	brl	L10027
  1420                        L93:
  1421 00:CCB8: D4 15        	pei	<L82+c_1
  1422 00:CCBA: 20 6E C9     	jsr	c_isdigit
  1423 00:CCBD: 29 FF 00     	and	#$ff
  1424 00:CCC0: D0 03        	bne	L94
  1425 00:CCC2: 82 1D 00     	brl	L10027
  1426                        L94:
  1427                        L88:
  1428 00:CCC5: A5 16        	lda	<L82+len_1
  1429 00:CCC7: 29 FF 00     	and	#$ff
  1430 00:CCCA: 85 01        	sta	<R0
  1431 00:CCCC: E2 20        	sep	#$20
  1432                        	longa	off
  1433 00:CCCE: A5 15        	lda	<L82+c_1
  1434 00:CCD0: A6 01        	ldx	<R0
  1435 00:CCD2: 9D 42 7F     	sta	lbuf,X
  1436 00:CCD5: C2 20        	rep	#$20
  1437                        	longa	on
  1438 00:CCD7: E2 20        	sep	#$20
  1439                        	longa	off
  1440 00:CCD9: E6 16        	inc	<L82+len_1
  1441 00:CCDB: C2 20        	rep	#$20
  1442                        	longa	on
  1443 00:CCDD: D4 15        	pei	<L82+c_1
  1444 00:CCDF: 20 26 C4     	jsr	c_putch
  1445                        L10027:
  1446                        L10026:
  1447 00:CCE2: 82 4A FF     	brl	L10023
  1448                        L10024:
  1449 00:CCE5: 20 6E C5     	jsr	newline
  1450 00:CCE8: A5 16        	lda	<L82+len_1
  1451 00:CCEA: 29 FF 00     	and	#$ff
  1452 00:CCED: 85 01        	sta	<R0
  1453 00:CCEF: E2 20        	sep	#$20
  1454                        	longa	off
  1455 00:CCF1: A9 00        	lda	#$0
  1456 00:CCF3: A6 01        	ldx	<R0
  1457 00:CCF5: 9D 42 7F     	sta	lbuf,X
  1458 00:CCF8: C2 20        	rep	#$20
  1459                        	longa	on
  1460 00:CCFA: AD 42 7F     	lda	lbuf
  1461 00:CCFD: 29 FF 00     	and	#$ff
  1462 00:CD00: 82 33 00     	brl	L10028
  1463                        L10030:
  1464 00:CD03: E2 20        	sep	#$20
  1465                        	longa	off
  1466 00:CD05: A9 01        	lda	#$1
  1467 00:CD07: 85 17        	sta	<L82+sign_1
  1468 00:CD09: C2 20        	rep	#$20
  1469                        	longa	on
  1470 00:CD0B: E2 20        	sep	#$20
  1471                        	longa	off
  1472 00:CD0D: A9 01        	lda	#$1
  1473 00:CD0F: 85 16        	sta	<L82+len_1
  1474 00:CD11: C2 20        	rep	#$20
  1475                        	longa	on
  1476 00:CD13: 82 2F 00     	brl	L10029
  1477                        L10031:
  1478 00:CD16: E2 20        	sep	#$20
  1479                        	longa	off
  1480 00:CD18: 64 17        	stz	<L82+sign_1
  1481 00:CD1A: C2 20        	rep	#$20
  1482                        	longa	on
  1483 00:CD1C: E2 20        	sep	#$20
  1484                        	longa	off
  1485 00:CD1E: A9 01        	lda	#$1
  1486 00:CD20: 85 16        	sta	<L82+len_1
  1487 00:CD22: C2 20        	rep	#$20
  1488                        	longa	on
  1489 00:CD24: 82 1E 00     	brl	L10029
  1490                        L10032:
  1491 00:CD27: E2 20        	sep	#$20
  1492                        	longa	off
  1493 00:CD29: 64 17        	stz	<L82+sign_1
  1494 00:CD2B: C2 20        	rep	#$20
  1495                        	longa	on
  1496 00:CD2D: E2 20        	sep	#$20
  1497                        	longa	off
  1498 00:CD2F: 64 16        	stz	<L82+len_1
  1499 00:CD31: C2 20        	rep	#$20
  1500                        	longa	on
  1501 00:CD33: 82 0F 00     	brl	L10029
  1502                        L10028:
  1503 00:CD36: 20 F7 C4     	jsr	swt
  1504 00:CD39: 02 00        	dw	2
  1505 00:CD3B: 2B 00        	dw	43
  1506 00:CD3D: 15 CD        	dw	L10031-1
  1507 00:CD3F: 2D 00        	dw	45
  1508 00:CD41: 02 CD        	dw	L10030-1
  1509 00:CD43: 26 CD        	dw	L10032-1
  1510                        L10029:
  1511 00:CD45: 64 11        	stz	<L82+value_1
  1512 00:CD47: 64 13        	stz	<L82+tmp_1
  1513                        L10033:
  1514 00:CD49: A5 16        	lda	<L82+len_1
  1515 00:CD4B: 29 FF 00     	and	#$ff
  1516 00:CD4E: 85 01        	sta	<R0
  1517 00:CD50: A6 01        	ldx	<R0
  1518 00:CD52: BD 42 7F     	lda	lbuf,X
  1519 00:CD55: 29 FF 00     	and	#$ff
  1520 00:CD58: D0 03        	bne	L95
  1521 00:CD5A: 82 4E 00     	brl	L10034
  1522                        L95:
  1523 00:CD5D: A5 16        	lda	<L82+len_1
  1524 00:CD5F: 29 FF 00     	and	#$ff
  1525 00:CD62: 85 01        	sta	<R0
  1526 00:CD64: A6 01        	ldx	<R0
  1527 00:CD66: BD 42 7F     	lda	lbuf,X
  1528 00:CD69: 29 FF 00     	and	#$ff
  1529 00:CD6C: 85 05        	sta	<R1
  1530 00:CD6E: A5 11        	lda	<L82+value_1
  1531 00:CD70: 0A           	asl	A
  1532 00:CD71: 0A           	asl	A
  1533 00:CD72: 65 11        	adc	<L82+value_1
  1534 00:CD74: 0A           	asl	A
  1535 00:CD75: 85 09        	sta	<R2
  1536 00:CD77: 18           	clc
  1537 00:CD78: A5 09        	lda	<R2
  1538 00:CD7A: 65 05        	adc	<R1
  1539 00:CD7C: 85 0D        	sta	<R3
  1540 00:CD7E: 18           	clc
  1541 00:CD7F: A9 D0 FF     	lda	#$ffd0
  1542 00:CD82: 65 0D        	adc	<R3
  1543 00:CD84: 85 13        	sta	<L82+tmp_1
  1544 00:CD86: E2 20        	sep	#$20
  1545                        	longa	off
  1546 00:CD88: E6 16        	inc	<L82+len_1
  1547 00:CD8A: C2 20        	rep	#$20
  1548                        	longa	on
  1549 00:CD8C: 38           	sec
  1550 00:CD8D: A5 13        	lda	<L82+tmp_1
  1551 00:CD8F: E5 11        	sbc	<L82+value_1
  1552 00:CD91: 70 03        	bvs	L96
  1553 00:CD93: 49 00 80     	eor	#$8000
  1554                        L96:
  1555 00:CD96: 10 03        	bpl	L97
  1556 00:CD98: 82 09 00     	brl	L10035
  1557                        L97:
  1558 00:CD9B: E2 20        	sep	#$20
  1559                        	longa	off
  1560 00:CD9D: A9 02        	lda	#$2
  1561 00:CD9F: 8D E2 7F     	sta	err
  1562 00:CDA2: C2 20        	rep	#$20
  1563                        	longa	on
  1564                        L10035:
  1565 00:CDA4: A5 13        	lda	<L82+tmp_1
  1566 00:CDA6: 85 11        	sta	<L82+value_1
  1567 00:CDA8: 82 9E FF     	brl	L10033
  1568                        L10034:
  1569 00:CDAB: A5 17        	lda	<L82+sign_1
  1570 00:CDAD: 29 FF 00     	and	#$ff
  1571 00:CDB0: D0 03        	bne	L98
  1572 00:CDB2: 82 10 00     	brl	L10036
  1573                        L98:
  1574 00:CDB5: 38           	sec
  1575 00:CDB6: A9 00 00     	lda	#$0
  1576 00:CDB9: E5 11        	sbc	<L82+value_1
  1577                        L99:
  1578 00:CDBB: A8           	tay
  1579 00:CDBC: 2B           	pld
  1580 00:CDBD: 3B           	tsc
  1581 00:CDBE: 18           	clc
  1582 00:CDBF: 69 17 00     	adc	#L81
  1583 00:CDC2: 1B           	tcs
  1584 00:CDC3: 98           	tya
  1585 00:CDC4: 60           	rts
  1586                        L10036:
  1587 00:CDC5: A5 11        	lda	<L82+value_1
  1588 00:CDC7: 82 F1 FF     	brl	L99
  1589             00000017   L81	equ	23
  1590             00000011   L82	equ	17
  1591                        
  1592                        toktoi:
  1593                        	longa	on
  1594                        	longi	on
  1595 00:CDCA: 3B           	tsc
  1596 00:CDCB: 38           	sec
  1597 00:CDCC: E9 19 00     	sbc	#L100
  1598 00:CDCF: 1B           	tcs
  1599 00:CDD0: 0B           	phd
  1600 00:CDD1: 5B           	tcd
  1601             00000000   i_1	set	0
  1602             00000001   len_1	set	1
  1603             00000002   pkw_1	set	2
  1604             00000004   ptok_1	set	4
  1605             00000006   s_1	set	6
  1606             00000008   c_1	set	8
  1607             00000009   value_1	set	9
  1608             0000000B   tmp_1	set	11
  1609 00:CDD2: E2 20        	sep	#$20
  1610                        	longa	off
  1611 00:CDD4: 64 0E        	stz	<L101+len_1
  1612 00:CDD6: C2 20        	rep	#$20
  1613                        	longa	on
  1614 00:CDD8: 64 0F        	stz	<L101+pkw_1
  1615 00:CDDA: A9 42 7F     	lda	#<lbuf
  1616 00:CDDD: 85 13        	sta	<L101+s_1
  1617                        L10037:
  1618 00:CDDF: B2 13        	lda	(<L101+s_1)
  1619 00:CDE1: 29 FF 00     	and	#$ff
  1620 00:CDE4: D0 03        	bne	L102
  1621 00:CDE6: 82 0B 04     	brl	L10038
  1622                        L102:
  1623                        L10039:
  1624 00:CDE9: B2 13        	lda	(<L101+s_1)
  1625 00:CDEB: 48           	pha
  1626 00:CDEC: 20 28 C9     	jsr	c_isspace
  1627 00:CDEF: 29 FF 00     	and	#$ff
  1628 00:CDF2: D0 03        	bne	L103
  1629 00:CDF4: 82 05 00     	brl	L10040
  1630                        L103:
  1631 00:CDF7: E6 13        	inc	<L101+s_1
  1632 00:CDF9: 82 ED FF     	brl	L10039
  1633                        L10040:
  1634 00:CDFC: E2 20        	sep	#$20
  1635                        	longa	off
  1636 00:CDFE: 64 0D        	stz	<L101+i_1
  1637 00:CE00: C2 20        	rep	#$20
  1638                        	longa	on
  1639 00:CE02: 82 06 00     	brl	L10042
  1640                        L10041:
  1641 00:CE05: E2 20        	sep	#$20
  1642                        	longa	off
  1643 00:CE07: E6 0D        	inc	<L101+i_1
  1644 00:CE09: C2 20        	rep	#$20
  1645                        	longa	on
  1646                        L10042:
  1647 00:CE0B: E2 20        	sep	#$20
  1648                        	longa	off
  1649 00:CE0D: A5 0D        	lda	<L101+i_1
  1650 00:CE0F: C9 23        	cmp	#<$23
  1651 00:CE11: C2 20        	rep	#$20
  1652                        	longa	on
  1653 00:CE13: 90 03        	bcc	L104
  1654 00:CE15: 82 95 00     	brl	L10043
  1655                        L104:
  1656 00:CE18: A5 0D        	lda	<L101+i_1
  1657 00:CE1A: 29 FF 00     	and	#$ff
  1658 00:CE1D: 85 05        	sta	<R1
  1659 00:CE1F: A5 05        	lda	<R1
  1660 00:CE21: 0A           	asl	A
  1661 00:CE22: 85 01        	sta	<R0
  1662 00:CE24: 18           	clc
  1663 00:CE25: A9 AD C5     	lda	#<kwtbl
  1664 00:CE28: 65 01        	adc	<R0
  1665 00:CE2A: 85 05        	sta	<R1
  1666 00:CE2C: B2 05        	lda	(<R1)
  1667 00:CE2E: 85 0F        	sta	<L101+pkw_1
  1668 00:CE30: A5 13        	lda	<L101+s_1
  1669 00:CE32: 85 11        	sta	<L101+ptok_1
  1670                        L10044:
  1671 00:CE34: B2 0F        	lda	(<L101+pkw_1)
  1672 00:CE36: 29 FF 00     	and	#$ff
  1673 00:CE39: D0 03        	bne	L105
  1674 00:CE3B: 82 20 00     	brl	L10045
  1675                        L105:
  1676 00:CE3E: B2 11        	lda	(<L101+ptok_1)
  1677 00:CE40: 48           	pha
  1678 00:CE41: 20 9C C8     	jsr	c_toupper
  1679 00:CE44: E2 20        	sep	#$20
  1680                        	longa	off
  1681 00:CE46: 85 01        	sta	<R0
  1682 00:CE48: C2 20        	rep	#$20
  1683                        	longa	on
  1684 00:CE4A: E2 20        	sep	#$20
  1685                        	longa	off
  1686 00:CE4C: A5 01        	lda	<R0
  1687 00:CE4E: D2 0F        	cmp	(<L101+pkw_1)
  1688 00:CE50: C2 20        	rep	#$20
  1689                        	longa	on
  1690 00:CE52: F0 03        	beq	L106
  1691 00:CE54: 82 07 00     	brl	L10045
  1692                        L106:
  1693 00:CE57: E6 0F        	inc	<L101+pkw_1
  1694 00:CE59: E6 11        	inc	<L101+ptok_1
  1695 00:CE5B: 82 D6 FF     	brl	L10044
  1696                        L10045:
  1697 00:CE5E: B2 0F        	lda	(<L101+pkw_1)
  1698 00:CE60: 29 FF 00     	and	#$ff
  1699 00:CE63: F0 03        	beq	L107
  1700 00:CE65: 82 42 00     	brl	L10046
  1701                        L107:
  1702 00:CE68: E2 20        	sep	#$20
  1703                        	longa	off
  1704 00:CE6A: A5 0E        	lda	<L101+len_1
  1705 00:CE6C: C9 9F        	cmp	#<$9f
  1706 00:CE6E: C2 20        	rep	#$20
  1707                        	longa	on
  1708 00:CE70: B0 03        	bcs	L108
  1709 00:CE72: 82 16 00     	brl	L10047
  1710                        L108:
  1711 00:CE75: E2 20        	sep	#$20
  1712                        	longa	off
  1713 00:CE77: A9 04        	lda	#$4
  1714 00:CE79: 8D E2 7F     	sta	err
  1715 00:CE7C: C2 20        	rep	#$20
  1716                        	longa	on
  1717 00:CE7E: A9 00 00     	lda	#$0
  1718                        L109:
  1719 00:CE81: A8           	tay
  1720 00:CE82: 2B           	pld
  1721 00:CE83: 3B           	tsc
  1722 00:CE84: 18           	clc
  1723 00:CE85: 69 19 00     	adc	#L100
  1724 00:CE88: 1B           	tcs
  1725 00:CE89: 98           	tya
  1726 00:CE8A: 60           	rts
  1727                        L10047:
  1728 00:CE8B: A5 0E        	lda	<L101+len_1
  1729 00:CE8D: 29 FF 00     	and	#$ff
  1730 00:CE90: 85 01        	sta	<R0
  1731 00:CE92: E2 20        	sep	#$20
  1732                        	longa	off
  1733 00:CE94: A5 0D        	lda	<L101+i_1
  1734 00:CE96: A6 01        	ldx	<R0
  1735 00:CE98: 9D A2 7E     	sta	ibuf,X
  1736 00:CE9B: C2 20        	rep	#$20
  1737                        	longa	on
  1738 00:CE9D: E2 20        	sep	#$20
  1739                        	longa	off
  1740 00:CE9F: E6 0E        	inc	<L101+len_1
  1741 00:CEA1: C2 20        	rep	#$20
  1742                        	longa	on
  1743 00:CEA3: A5 11        	lda	<L101+ptok_1
  1744 00:CEA5: 85 13        	sta	<L101+s_1
  1745 00:CEA7: 82 03 00     	brl	L10043
  1746                        L10046:
  1747 00:CEAA: 82 58 FF     	brl	L10041
  1748                        L10043:
  1749 00:CEAD: E2 20        	sep	#$20
  1750                        	longa	off
  1751 00:CEAF: A5 0D        	lda	<L101+i_1
  1752 00:CEB1: C9 08        	cmp	#<$8
  1753 00:CEB3: C2 20        	rep	#$20
  1754                        	longa	on
  1755 00:CEB5: F0 03        	beq	L110
  1756 00:CEB7: 82 B0 00     	brl	L10048
  1757                        L110:
  1758                        L10049:
  1759 00:CEBA: B2 13        	lda	(<L101+s_1)
  1760 00:CEBC: 48           	pha
  1761 00:CEBD: 20 28 C9     	jsr	c_isspace
  1762 00:CEC0: 29 FF 00     	and	#$ff
  1763 00:CEC3: D0 03        	bne	L111
  1764 00:CEC5: 82 05 00     	brl	L10050
  1765                        L111:
  1766 00:CEC8: E6 13        	inc	<L101+s_1
  1767 00:CECA: 82 ED FF     	brl	L10049
  1768                        L10050:
  1769 00:CECD: A5 13        	lda	<L101+s_1
  1770 00:CECF: 85 11        	sta	<L101+ptok_1
  1771 00:CED1: E2 20        	sep	#$20
  1772                        	longa	off
  1773 00:CED3: 64 0D        	stz	<L101+i_1
  1774 00:CED5: C2 20        	rep	#$20
  1775                        	longa	on
  1776 00:CED7: 82 06 00     	brl	L10052
  1777                        L10051:
  1778 00:CEDA: E2 20        	sep	#$20
  1779                        	longa	off
  1780 00:CEDC: E6 0D        	inc	<L101+i_1
  1781 00:CEDE: C2 20        	rep	#$20
  1782                        	longa	on
  1783                        L10052:
  1784 00:CEE0: A5 11        	lda	<L101+ptok_1
  1785 00:CEE2: 85 01        	sta	<R0
  1786 00:CEE4: E6 11        	inc	<L101+ptok_1
  1787 00:CEE6: B2 01        	lda	(<R0)
  1788 00:CEE8: 29 FF 00     	and	#$ff
  1789 00:CEEB: D0 03        	bne	L112
  1790 00:CEED: 82 03 00     	brl	L10053
  1791                        L112:
  1792 00:CEF0: 82 E7 FF     	brl	L10051
  1793                        L10053:
  1794 00:CEF3: E2 20        	sep	#$20
  1795                        	longa	off
  1796 00:CEF5: 38           	sec
  1797 00:CEF6: A9 9E        	lda	#$9e
  1798 00:CEF8: E5 0D        	sbc	<L101+i_1
  1799 00:CEFA: 85 01        	sta	<R0
  1800 00:CEFC: C2 20        	rep	#$20
  1801                        	longa	on
  1802 00:CEFE: E2 20        	sep	#$20
  1803                        	longa	off
  1804 00:CF00: A5 0E        	lda	<L101+len_1
  1805 00:CF02: C5 01        	cmp	<R0
  1806 00:CF04: C2 20        	rep	#$20
  1807                        	longa	on
  1808 00:CF06: B0 03        	bcs	L113
  1809 00:CF08: 82 0F 00     	brl	L10054
  1810                        L113:
  1811 00:CF0B: E2 20        	sep	#$20
  1812                        	longa	off
  1813 00:CF0D: A9 04        	lda	#$4
  1814 00:CF0F: 8D E2 7F     	sta	err
  1815 00:CF12: C2 20        	rep	#$20
  1816                        	longa	on
  1817 00:CF14: A9 00 00     	lda	#$0
  1818 00:CF17: 82 67 FF     	brl	L109
  1819                        L10054:
  1820 00:CF1A: A5 0E        	lda	<L101+len_1
  1821 00:CF1C: 29 FF 00     	and	#$ff
  1822 00:CF1F: 85 01        	sta	<R0
  1823 00:CF21: E2 20        	sep	#$20
  1824                        	longa	off
  1825 00:CF23: A5 0D        	lda	<L101+i_1
  1826 00:CF25: A6 01        	ldx	<R0
  1827 00:CF27: 9D A2 7E     	sta	ibuf,X
  1828 00:CF2A: C2 20        	rep	#$20
  1829                        	longa	on
  1830 00:CF2C: E2 20        	sep	#$20
  1831                        	longa	off
  1832 00:CF2E: E6 0E        	inc	<L101+len_1
  1833 00:CF30: C2 20        	rep	#$20
  1834                        	longa	on
  1835                        L10055:
  1836 00:CF32: E2 20        	sep	#$20
  1837                        	longa	off
  1838 00:CF34: A5 0D        	lda	<L101+i_1
  1839 00:CF36: 85 01        	sta	<R0
  1840 00:CF38: C2 20        	rep	#$20
  1841                        	longa	on
  1842 00:CF3A: E2 20        	sep	#$20
  1843                        	longa	off
  1844 00:CF3C: C6 0D        	dec	<L101+i_1
  1845 00:CF3E: C2 20        	rep	#$20
  1846                        	longa	on
  1847 00:CF40: A5 01        	lda	<R0
  1848 00:CF42: 29 FF 00     	and	#$ff
  1849 00:CF45: D0 03        	bne	L114
  1850 00:CF47: 82 1D 00     	brl	L10056
  1851                        L114:
  1852 00:CF4A: A5 0E        	lda	<L101+len_1
  1853 00:CF4C: 29 FF 00     	and	#$ff
  1854 00:CF4F: 85 01        	sta	<R0
  1855 00:CF51: E2 20        	sep	#$20
  1856                        	longa	off
  1857 00:CF53: B2 13        	lda	(<L101+s_1)
  1858 00:CF55: A6 01        	ldx	<R0
  1859 00:CF57: 9D A2 7E     	sta	ibuf,X
  1860 00:CF5A: C2 20        	rep	#$20
  1861                        	longa	on
  1862 00:CF5C: E6 13        	inc	<L101+s_1
  1863 00:CF5E: E2 20        	sep	#$20
  1864                        	longa	off
  1865 00:CF60: E6 0E        	inc	<L101+len_1
  1866 00:CF62: C2 20        	rep	#$20
  1867                        	longa	on
  1868 00:CF64: 82 CB FF     	brl	L10055
  1869                        L10056:
  1870 00:CF67: 82 8A 02     	brl	L10038
  1871                        L10048:
  1872 00:CF6A: B2 0F        	lda	(<L101+pkw_1)
  1873 00:CF6C: 29 FF 00     	and	#$ff
  1874 00:CF6F: D0 03        	bne	L115
  1875 00:CF71: 82 6B FE     	brl	L10037
  1876                        L115:
  1877 00:CF74: A5 13        	lda	<L101+s_1
  1878 00:CF76: 85 11        	sta	<L101+ptok_1
  1879 00:CF78: B2 11        	lda	(<L101+ptok_1)
  1880 00:CF7A: 48           	pha
  1881 00:CF7B: 20 6E C9     	jsr	c_isdigit
  1882 00:CF7E: 29 FF 00     	and	#$ff
  1883 00:CF81: D0 03        	bne	L116
  1884 00:CF83: 82 9F 00     	brl	L10057
  1885                        L116:
  1886 00:CF86: 64 16        	stz	<L101+value_1
  1887 00:CF88: 64 18        	stz	<L101+tmp_1
  1888                        L10060:
  1889 00:CF8A: B2 11        	lda	(<L101+ptok_1)
  1890 00:CF8C: 29 FF 00     	and	#$ff
  1891 00:CF8F: 85 01        	sta	<R0
  1892 00:CF91: A5 16        	lda	<L101+value_1
  1893 00:CF93: 0A           	asl	A
  1894 00:CF94: 0A           	asl	A
  1895 00:CF95: 65 16        	adc	<L101+value_1
  1896 00:CF97: 0A           	asl	A
  1897 00:CF98: 85 05        	sta	<R1
  1898 00:CF9A: 18           	clc
  1899 00:CF9B: A5 05        	lda	<R1
  1900 00:CF9D: 65 01        	adc	<R0
  1901 00:CF9F: 85 09        	sta	<R2
  1902 00:CFA1: 18           	clc
  1903 00:CFA2: A9 D0 FF     	lda	#$ffd0
  1904 00:CFA5: 65 09        	adc	<R2
  1905 00:CFA7: 85 18        	sta	<L101+tmp_1
  1906 00:CFA9: E6 11        	inc	<L101+ptok_1
  1907 00:CFAB: 38           	sec
  1908 00:CFAC: A5 18        	lda	<L101+tmp_1
  1909 00:CFAE: E5 16        	sbc	<L101+value_1
  1910 00:CFB0: 70 03        	bvs	L117
  1911 00:CFB2: 49 00 80     	eor	#$8000
  1912                        L117:
  1913 00:CFB5: 10 03        	bpl	L118
  1914 00:CFB7: 82 0F 00     	brl	L10061
  1915                        L118:
  1916 00:CFBA: E2 20        	sep	#$20
  1917                        	longa	off
  1918 00:CFBC: A9 02        	lda	#$2
  1919 00:CFBE: 8D E2 7F     	sta	err
  1920 00:CFC1: C2 20        	rep	#$20
  1921                        	longa	on
  1922 00:CFC3: A9 00 00     	lda	#$0
  1923 00:CFC6: 82 B8 FE     	brl	L109
  1924                        L10061:
  1925 00:CFC9: A5 18        	lda	<L101+tmp_1
  1926 00:CFCB: 85 16        	sta	<L101+value_1
  1927                        L10058:
  1928 00:CFCD: B2 11        	lda	(<L101+ptok_1)
  1929 00:CFCF: 48           	pha
  1930 00:CFD0: 20 6E C9     	jsr	c_isdigit
  1931 00:CFD3: 29 FF 00     	and	#$ff
  1932 00:CFD6: F0 03        	beq	L119
  1933 00:CFD8: 82 AF FF     	brl	L10060
  1934                        L119:
  1935                        L10059:
  1936 00:CFDB: E2 20        	sep	#$20
  1937                        	longa	off
  1938 00:CFDD: A5 0E        	lda	<L101+len_1
  1939 00:CFDF: C9 9D        	cmp	#<$9d
  1940 00:CFE1: C2 20        	rep	#$20
  1941                        	longa	on
  1942 00:CFE3: B0 03        	bcs	L120
  1943 00:CFE5: 82 0F 00     	brl	L10062
  1944                        L120:
  1945 00:CFE8: E2 20        	sep	#$20
  1946                        	longa	off
  1947 00:CFEA: A9 04        	lda	#$4
  1948 00:CFEC: 8D E2 7F     	sta	err
  1949 00:CFEF: C2 20        	rep	#$20
  1950                        	longa	on
  1951 00:CFF1: A9 00 00     	lda	#$0
  1952 00:CFF4: 82 8A FE     	brl	L109
  1953                        L10062:
  1954 00:CFF7: A5 0E        	lda	<L101+len_1
  1955 00:CFF9: 29 FF 00     	and	#$ff
  1956 00:CFFC: 85 01        	sta	<R0		; r0 = len
  1957                        
  1958 00:CFFE: E2 20        	sep	#$20
  1959                        	longa	off
  1960 00:D000: A9 23        	lda	#$23		; I_NUM
  1961 00:D002: A6 01        	ldx	<R0
  1962 00:D004: 9D A2 7E     	sta	ibuf,X		; ibuf[len]
  1963                        
  1964                        ;	rep	#$20
  1965                        ;	longa	on
  1966                        ;	sep	#$20
  1967                        ;	longa	off
  1968 00:D007: E6 0E        	inc	<L101+len_1	; len++
  1969 00:D009: C2 20        	rep	#$20
  1970                        	longa	on
  1971                        
  1972 00:D00B: A5 0E        	lda	<L101+len_1
  1973 00:D00D: 29 FF 00     	and	#$ff
  1974 00:D010: AA           	tax
  1975 00:D011: A5 16        	lda	<L101+value_1
  1976 00:D013: 9D A2 7E     	sta	ibuf,X		; ibuf[len] = value & 255;ibuf[len+1] = value >> 8;
  1977 00:D016: E2 20        	sep	#$20
  1978                        	longa	off
  1979 00:D018: E6 0E        	inc	<L101+len_1	; len++
  1980 00:D01A: E6 0E        	inc	<L101+len_1	; len++
  1981 00:D01C: C2 20        	rep	#$20
  1982                        	longa	on
  1983                        
  1984                        	if 0
  1985                        	lda	<L101+len_1
  1986                        	and	#$ff
  1987                        	sta	<R0
  1988                        	lda	<L101+value_1
  1989                        	and	#<$ff
  1990                        	sep	#$20
  1991                        	longa	off
  1992                        	ldx	<R0
  1993                        	sta	ibuf,X
  1994                        	rep	#$20
  1995                        	longa	on
  1996                        	sep	#$20
  1997                        	longa	off
  1998                        	inc	<L101+len_1
  1999                        	rep	#$20
  2000                        	longa	on
  2001                        	lda	<L101+len_1
  2002                        	and	#$ff
  2003                        	sta	<R0
  2004                        	lda	<L101+value_1
  2005                        
  2006                        	xba			; A(low) <-> A(high)	: value >> 8
  2007                        ;	ldx	#<$8
  2008                        ;	jsr	asr
  2009                        
  2010                        	sep	#$20
  2011                        	longa	off
  2012                        	ldx	<R0
  2013                        	sta	ibuf,X
  2014                        	rep	#$20
  2015                        	longa	on
  2016                        	sep	#$20
  2017                        	longa	off
  2018                        	inc	<L101+len_1
  2019                        	rep	#$20
  2020                        	longa	on
  2021                        	endif
  2022                        
  2023 00:D01E: A5 11        	lda	<L101+ptok_1
  2024 00:D020: 85 13        	sta	<L101+s_1
  2025 00:D022: 82 CC 01     	brl	L10063
  2026                        L10057:
  2027 00:D025: E2 20        	sep	#$20
  2028                        	longa	off
  2029 00:D027: B2 13        	lda	(<L101+s_1)
  2030 00:D029: C9 22        	cmp	#<$22
  2031 00:D02B: C2 20        	rep	#$20
  2032                        	longa	on
  2033 00:D02D: D0 03        	bne	L122
  2034 00:D02F: 82 0D 00     	brl	L121
  2035                        L122:
  2036 00:D032: E2 20        	sep	#$20
  2037                        	longa	off
  2038 00:D034: B2 13        	lda	(<L101+s_1)
  2039 00:D036: C9 27        	cmp	#<$27
  2040 00:D038: C2 20        	rep	#$20
  2041                        	longa	on
  2042 00:D03A: F0 03        	beq	L123
  2043 00:D03C: 82 DB 00     	brl	L10064
  2044                        L123:
  2045                        L121:
  2046 00:D03F: E2 20        	sep	#$20
  2047                        	longa	off
  2048 00:D041: B2 13        	lda	(<L101+s_1)
  2049 00:D043: 85 15        	sta	<L101+c_1
  2050 00:D045: C2 20        	rep	#$20
  2051                        	longa	on
  2052 00:D047: E6 13        	inc	<L101+s_1
  2053 00:D049: A5 13        	lda	<L101+s_1
  2054 00:D04B: 85 11        	sta	<L101+ptok_1
  2055 00:D04D: E2 20        	sep	#$20
  2056                        	longa	off
  2057 00:D04F: 64 0D        	stz	<L101+i_1
  2058 00:D051: C2 20        	rep	#$20
  2059                        	longa	on
  2060 00:D053: 82 06 00     	brl	L10066
  2061                        L10065:
  2062 00:D056: E2 20        	sep	#$20
  2063                        	longa	off
  2064 00:D058: E6 0D        	inc	<L101+i_1
  2065 00:D05A: C2 20        	rep	#$20
  2066                        	longa	on
  2067                        L10066:
  2068 00:D05C: E2 20        	sep	#$20
  2069                        	longa	off
  2070 00:D05E: B2 11        	lda	(<L101+ptok_1)
  2071 00:D060: C5 15        	cmp	<L101+c_1
  2072 00:D062: C2 20        	rep	#$20
  2073                        	longa	on
  2074 00:D064: D0 03        	bne	L124
  2075 00:D066: 82 13 00     	brl	L10067
  2076                        L124:
  2077 00:D069: B2 11        	lda	(<L101+ptok_1)
  2078 00:D06B: 48           	pha
  2079 00:D06C: 20 EF C8     	jsr	c_isprint
  2080 00:D06F: 29 FF 00     	and	#$ff
  2081 00:D072: D0 03        	bne	L125
  2082 00:D074: 82 05 00     	brl	L10067
  2083                        L125:
  2084 00:D077: E6 11        	inc	<L101+ptok_1
  2085 00:D079: 82 DA FF     	brl	L10065
  2086                        L10067:
  2087 00:D07C: E2 20        	sep	#$20
  2088                        	longa	off
  2089 00:D07E: 38           	sec
  2090 00:D07F: A9 9F        	lda	#$9f
  2091 00:D081: E5 0D        	sbc	<L101+i_1
  2092 00:D083: 85 01        	sta	<R0
  2093 00:D085: C2 20        	rep	#$20
  2094                        	longa	on
  2095 00:D087: E2 20        	sep	#$20
  2096                        	longa	off
  2097 00:D089: A5 0E        	lda	<L101+len_1
  2098 00:D08B: C5 01        	cmp	<R0
  2099 00:D08D: C2 20        	rep	#$20
  2100                        	longa	on
  2101 00:D08F: B0 03        	bcs	L126
  2102 00:D091: 82 0F 00     	brl	L10068
  2103                        L126:
  2104 00:D094: E2 20        	sep	#$20
  2105                        	longa	off
  2106 00:D096: A9 04        	lda	#$4
  2107 00:D098: 8D E2 7F     	sta	err
  2108 00:D09B: C2 20        	rep	#$20
  2109                        	longa	on
  2110 00:D09D: A9 00 00     	lda	#$0
  2111 00:D0A0: 82 DE FD     	brl	L109
  2112                        L10068:
  2113 00:D0A3: A5 0E        	lda	<L101+len_1
  2114 00:D0A5: 29 FF 00     	and	#$ff
  2115 00:D0A8: 85 01        	sta	<R0
  2116 00:D0AA: E2 20        	sep	#$20
  2117                        	longa	off
  2118 00:D0AC: A9 25        	lda	#$25
  2119 00:D0AE: A6 01        	ldx	<R0
  2120 00:D0B0: 9D A2 7E     	sta	ibuf,X
  2121 00:D0B3: C2 20        	rep	#$20
  2122                        	longa	on
  2123 00:D0B5: E2 20        	sep	#$20
  2124                        	longa	off
  2125 00:D0B7: E6 0E        	inc	<L101+len_1
  2126 00:D0B9: C2 20        	rep	#$20
  2127                        	longa	on
  2128 00:D0BB: A5 0E        	lda	<L101+len_1
  2129 00:D0BD: 29 FF 00     	and	#$ff
  2130 00:D0C0: 85 01        	sta	<R0
  2131 00:D0C2: E2 20        	sep	#$20
  2132                        	longa	off
  2133 00:D0C4: A5 0D        	lda	<L101+i_1
  2134 00:D0C6: A6 01        	ldx	<R0
  2135 00:D0C8: 9D A2 7E     	sta	ibuf,X
  2136 00:D0CB: C2 20        	rep	#$20
  2137                        	longa	on
  2138 00:D0CD: E2 20        	sep	#$20
  2139                        	longa	off
  2140 00:D0CF: E6 0E        	inc	<L101+len_1
  2141 00:D0D1: C2 20        	rep	#$20
  2142                        	longa	on
  2143                        L10069:
  2144 00:D0D3: E2 20        	sep	#$20
  2145                        	longa	off
  2146 00:D0D5: A5 0D        	lda	<L101+i_1
  2147 00:D0D7: 85 01        	sta	<R0
  2148 00:D0D9: C2 20        	rep	#$20
  2149                        	longa	on
  2150 00:D0DB: E2 20        	sep	#$20
  2151                        	longa	off
  2152 00:D0DD: C6 0D        	dec	<L101+i_1
  2153 00:D0DF: C2 20        	rep	#$20
  2154                        	longa	on
  2155 00:D0E1: A5 01        	lda	<R0
  2156 00:D0E3: 29 FF 00     	and	#$ff
  2157 00:D0E6: D0 03        	bne	L127
  2158 00:D0E8: 82 1D 00     	brl	L10070
  2159                        L127:
  2160 00:D0EB: A5 0E        	lda	<L101+len_1
  2161 00:D0ED: 29 FF 00     	and	#$ff
  2162 00:D0F0: 85 01        	sta	<R0
  2163 00:D0F2: E2 20        	sep	#$20
  2164                        	longa	off
  2165 00:D0F4: B2 13        	lda	(<L101+s_1)
  2166 00:D0F6: A6 01        	ldx	<R0
  2167 00:D0F8: 9D A2 7E     	sta	ibuf,X
  2168 00:D0FB: C2 20        	rep	#$20
  2169                        	longa	on
  2170 00:D0FD: E6 13        	inc	<L101+s_1
  2171 00:D0FF: E2 20        	sep	#$20
  2172                        	longa	off
  2173 00:D101: E6 0E        	inc	<L101+len_1
  2174 00:D103: C2 20        	rep	#$20
  2175                        	longa	on
  2176 00:D105: 82 CB FF     	brl	L10069
  2177                        L10070:
  2178 00:D108: E2 20        	sep	#$20
  2179                        	longa	off
  2180 00:D10A: B2 13        	lda	(<L101+s_1)
  2181 00:D10C: C5 15        	cmp	<L101+c_1
  2182 00:D10E: C2 20        	rep	#$20
  2183                        	longa	on
  2184 00:D110: F0 03        	beq	L128
  2185 00:D112: 82 02 00     	brl	L10071
  2186                        L128:
  2187 00:D115: E6 13        	inc	<L101+s_1
  2188                        L10071:
  2189 00:D117: 82 D7 00     	brl	L10072
  2190                        L10064:
  2191 00:D11A: B2 11        	lda	(<L101+ptok_1)
  2192 00:D11C: 48           	pha
  2193 00:D11D: 20 A7 C9     	jsr	c_isalpha
  2194 00:D120: 29 FF 00     	and	#$ff
  2195 00:D123: D0 03        	bne	L129
  2196 00:D125: 82 BA 00     	brl	L10073
  2197                        L129:
  2198 00:D128: E2 20        	sep	#$20
  2199                        	longa	off
  2200 00:D12A: A5 0E        	lda	<L101+len_1
  2201 00:D12C: C9 9E        	cmp	#<$9e
  2202 00:D12E: C2 20        	rep	#$20
  2203                        	longa	on
  2204 00:D130: B0 03        	bcs	L130
  2205 00:D132: 82 0F 00     	brl	L10074
  2206                        L130:
  2207 00:D135: E2 20        	sep	#$20
  2208                        	longa	off
  2209 00:D137: A9 04        	lda	#$4
  2210 00:D139: 8D E2 7F     	sta	err
  2211 00:D13C: C2 20        	rep	#$20
  2212                        	longa	on
  2213 00:D13E: A9 00 00     	lda	#$0
  2214 00:D141: 82 3D FD     	brl	L109
  2215                        L10074:
  2216 00:D144: E2 20        	sep	#$20
  2217                        	longa	off
  2218 00:D146: A5 0E        	lda	<L101+len_1
  2219 00:D148: C9 04        	cmp	#<$4
  2220 00:D14A: C2 20        	rep	#$20
  2221                        	longa	on
  2222 00:D14C: B0 03        	bcs	L131
  2223 00:D14E: 82 3D 00     	brl	L10075
  2224                        L131:
  2225 00:D151: A5 0E        	lda	<L101+len_1
  2226 00:D153: 29 FF 00     	and	#$ff
  2227 00:D156: 85 01        	sta	<R0
  2228 00:D158: E2 20        	sep	#$20
  2229                        	longa	off
  2230 00:D15A: A6 01        	ldx	<R0
  2231 00:D15C: BD A0 7E     	lda	ibuf-2,X
  2232 00:D15F: C9 24        	cmp	#<$24
  2233 00:D161: C2 20        	rep	#$20
  2234                        	longa	on
  2235 00:D163: F0 03        	beq	L132
  2236 00:D165: 82 26 00     	brl	L10075
  2237                        L132:
  2238 00:D168: A5 0E        	lda	<L101+len_1
  2239 00:D16A: 29 FF 00     	and	#$ff
  2240 00:D16D: 85 05        	sta	<R1
  2241 00:D16F: E2 20        	sep	#$20
  2242                        	longa	off
  2243 00:D171: A6 05        	ldx	<R1
  2244 00:D173: BD 9E 7E     	lda	ibuf-4,X
  2245 00:D176: C9 24        	cmp	#<$24
  2246 00:D178: C2 20        	rep	#$20
  2247                        	longa	on
  2248 00:D17A: F0 03        	beq	L133
  2249 00:D17C: 82 0F 00     	brl	L10075
  2250                        L133:
  2251 00:D17F: E2 20        	sep	#$20
  2252                        	longa	off
  2253 00:D181: A9 14        	lda	#$14
  2254 00:D183: 8D E2 7F     	sta	err
  2255 00:D186: C2 20        	rep	#$20
  2256                        	longa	on
  2257 00:D188: A9 00 00     	lda	#$0
  2258 00:D18B: 82 F3 FC     	brl	L109
  2259                        L10075:
  2260 00:D18E: A5 0E        	lda	<L101+len_1
  2261 00:D190: 29 FF 00     	and	#$ff
  2262 00:D193: 85 01        	sta	<R0
  2263 00:D195: E2 20        	sep	#$20
  2264                        	longa	off
  2265 00:D197: A9 24        	lda	#$24
  2266 00:D199: A6 01        	ldx	<R0
  2267 00:D19B: 9D A2 7E     	sta	ibuf,X
  2268 00:D19E: C2 20        	rep	#$20
  2269                        	longa	on
  2270 00:D1A0: E2 20        	sep	#$20
  2271                        	longa	off
  2272 00:D1A2: E6 0E        	inc	<L101+len_1
  2273 00:D1A4: C2 20        	rep	#$20
  2274                        	longa	on
  2275 00:D1A6: E2 20        	sep	#$20
  2276                        	longa	off
  2277 00:D1A8: A5 0E        	lda	<L101+len_1
  2278 00:D1AA: 85 01        	sta	<R0
  2279 00:D1AC: C2 20        	rep	#$20
  2280                        	longa	on
  2281 00:D1AE: E2 20        	sep	#$20
  2282                        	longa	off
  2283 00:D1B0: E6 0E        	inc	<L101+len_1
  2284 00:D1B2: C2 20        	rep	#$20
  2285                        	longa	on
  2286 00:D1B4: A5 01        	lda	<R0
  2287 00:D1B6: 29 FF 00     	and	#$ff
  2288 00:D1B9: 85 01        	sta	<R0
  2289 00:D1BB: B2 11        	lda	(<L101+ptok_1)
  2290 00:D1BD: 48           	pha
  2291 00:D1BE: 20 9C C8     	jsr	c_toupper
  2292 00:D1C1: E2 20        	sep	#$20
  2293                        	longa	off
  2294 00:D1C3: 85 05        	sta	<R1
  2295 00:D1C5: C2 20        	rep	#$20
  2296                        	longa	on
  2297 00:D1C7: A5 05        	lda	<R1
  2298 00:D1C9: 29 FF 00     	and	#$ff
  2299 00:D1CC: 85 05        	sta	<R1
  2300 00:D1CE: 18           	clc
  2301 00:D1CF: A9 BF FF     	lda	#$ffbf
  2302 00:D1D2: 65 05        	adc	<R1
  2303 00:D1D4: E2 20        	sep	#$20
  2304                        	longa	off
  2305 00:D1D6: A6 01        	ldx	<R0
  2306 00:D1D8: 9D A2 7E     	sta	ibuf,X
  2307 00:D1DB: C2 20        	rep	#$20
  2308                        	longa	on
  2309 00:D1DD: E6 13        	inc	<L101+s_1
  2310 00:D1DF: 82 0F 00     	brl	L10076
  2311                        L10073:
  2312 00:D1E2: E2 20        	sep	#$20
  2313                        	longa	off
  2314 00:D1E4: A9 14        	lda	#$14
  2315 00:D1E6: 8D E2 7F     	sta	err
  2316 00:D1E9: C2 20        	rep	#$20
  2317                        	longa	on
  2318 00:D1EB: A9 00 00     	lda	#$0
  2319 00:D1EE: 82 90 FC     	brl	L109
  2320                        L10076:
  2321                        L10072:
  2322                        L10063:
  2323 00:D1F1: 82 EB FB     	brl	L10037
  2324                        L10038:
  2325 00:D1F4: A5 0E        	lda	<L101+len_1
  2326 00:D1F6: 29 FF 00     	and	#$ff
  2327 00:D1F9: 85 01        	sta	<R0
  2328 00:D1FB: E2 20        	sep	#$20
  2329                        	longa	off
  2330 00:D1FD: A9 26        	lda	#$26
  2331 00:D1FF: A6 01        	ldx	<R0
  2332 00:D201: 9D A2 7E     	sta	ibuf,X
  2333 00:D204: C2 20        	rep	#$20
  2334                        	longa	on
  2335 00:D206: E2 20        	sep	#$20
  2336                        	longa	off
  2337 00:D208: E6 0E        	inc	<L101+len_1
  2338 00:D20A: C2 20        	rep	#$20
  2339                        	longa	on
  2340 00:D20C: A5 0E        	lda	<L101+len_1
  2341 00:D20E: 29 FF 00     	and	#$ff
  2342 00:D211: 82 6D FC     	brl	L109
  2343             00000019   L100	equ	25
  2344             0000000D   L101	equ	13
  2345                        
  2346                        getlineno:
  2347                        	longa	on
  2348                        	longi	on
  2349 00:D214: 3B           	tsc
  2350 00:D215: 38           	sec
  2351 00:D216: E9 0C 00     	sbc	#L134
  2352 00:D219: 1B           	tcs
  2353 00:D21A: 0B           	phd
  2354 00:D21B: 5B           	tcd
  2355             00000003   lp_0	set	3
  2356 00:D21C: B2 0F        	lda	(<L134+lp_0)
  2357 00:D21E: 29 FF 00     	and	#$ff
  2358 00:D221: F0 03        	beq	L136
  2359 00:D223: 82 11 00     	brl	L10077
  2360                        L136:
  2361 00:D226: A9 FF 7F     	lda	#$7fff
  2362                        L137:
  2363 00:D229: A8           	tay
  2364 00:D22A: A5 0D        	lda	<L134+1
  2365 00:D22C: 85 0F        	sta	<L134+1+2
  2366 00:D22E: 2B           	pld
  2367 00:D22F: 3B           	tsc
  2368 00:D230: 18           	clc
  2369 00:D231: 69 0E 00     	adc	#L134+2
  2370 00:D234: 1B           	tcs
  2371 00:D235: 98           	tya
  2372 00:D236: 60           	rts
  2373                        L10077:
  2374 00:D237: A0 01 00     	ldy	#$1
  2375 00:D23A: B1 0F        	lda	(<L134+lp_0),Y
  2376 00:D23C: 29 FF 00     	and	#$ff
  2377 00:D23F: 85 01        	sta	<R0
  2378 00:D241: A0 02 00     	ldy	#$2
  2379 00:D244: B1 0F        	lda	(<L134+lp_0),Y
  2380 00:D246: 29 FF 00     	and	#$ff
  2381 00:D249: 85 09        	sta	<R2
  2382 00:D24B: A5 09        	lda	<R2
  2383 00:D24D: EB           	xba
  2384 00:D24E: 29 00 FF     	and	#$ff00
  2385 00:D251: 85 05        	sta	<R1
  2386 00:D253: A5 05        	lda	<R1
  2387 00:D255: 05 01        	ora	<R0
  2388 00:D257: 82 CF FF     	brl	L137
  2389             0000000C   L134	equ	12
  2390             0000000D   L135	equ	13
  2391                        
  2392                        getlp:
  2393                        	longa	on
  2394                        	longi	on
  2395 00:D25A: 3B           	tsc
  2396 00:D25B: 38           	sec
  2397 00:D25C: E9 06 00     	sbc	#L138
  2398 00:D25F: 1B           	tcs
  2399 00:D260: 0B           	phd
  2400 00:D261: 5B           	tcd
  2401             00000003   lineno_0	set	3
  2402             00000000   lp_1	set	0
  2403 00:D262: A9 00 04     	lda	#<listbuf
  2404 00:D265: 85 05        	sta	<L139+lp_1
  2405 00:D267: 82 0E 00     	brl	L10079
  2406                        L10078:
  2407 00:D26A: B2 05        	lda	(<L139+lp_1)
  2408 00:D26C: 29 FF 00     	and	#$ff
  2409 00:D26F: 85 01        	sta	<R0
  2410 00:D271: 18           	clc
  2411 00:D272: A5 05        	lda	<L139+lp_1
  2412 00:D274: 65 01        	adc	<R0
  2413 00:D276: 85 05        	sta	<L139+lp_1
  2414                        L10079:
  2415 00:D278: B2 05        	lda	(<L139+lp_1)
  2416 00:D27A: 29 FF 00     	and	#$ff
  2417 00:D27D: D0 03        	bne	L140
  2418 00:D27F: 82 19 00     	brl	L10080
  2419                        L140:
  2420 00:D282: D4 05        	pei	<L139+lp_1
  2421 00:D284: 20 14 D2     	jsr	getlineno
  2422 00:D287: 85 01        	sta	<R0
  2423 00:D289: 38           	sec
  2424 00:D28A: A5 01        	lda	<R0
  2425 00:D28C: E5 09        	sbc	<L138+lineno_0
  2426 00:D28E: 70 03        	bvs	L141
  2427 00:D290: 49 00 80     	eor	#$8000
  2428                        L141:
  2429 00:D293: 10 03        	bpl	L142
  2430 00:D295: 82 03 00     	brl	L10080
  2431                        L142:
  2432 00:D298: 82 CF FF     	brl	L10078
  2433                        L10080:
  2434 00:D29B: A5 05        	lda	<L139+lp_1
  2435                        L143:
  2436 00:D29D: A8           	tay
  2437 00:D29E: A5 07        	lda	<L138+1
  2438 00:D2A0: 85 09        	sta	<L138+1+2
  2439 00:D2A2: 2B           	pld
  2440 00:D2A3: 3B           	tsc
  2441 00:D2A4: 18           	clc
  2442 00:D2A5: 69 08 00     	adc	#L138+2
  2443 00:D2A8: 1B           	tcs
  2444 00:D2A9: 98           	tya
  2445 00:D2AA: 60           	rts
  2446             00000006   L138	equ	6
  2447             00000005   L139	equ	5
  2448                        
  2449                        getsize:
  2450                        	longa	on
  2451                        	longi	on
  2452 00:D2AB: 3B           	tsc
  2453 00:D2AC: 38           	sec
  2454 00:D2AD: E9 06 00     	sbc	#L144
  2455 00:D2B0: 1B           	tcs
  2456 00:D2B1: 0B           	phd
  2457 00:D2B2: 5B           	tcd
  2458             00000000   lp_1	set	0
  2459 00:D2B3: A9 00 04     	lda	#<listbuf
  2460 00:D2B6: 85 05        	sta	<L145+lp_1
  2461 00:D2B8: 82 0E 00     	brl	L10082
  2462                        L10081:
  2463 00:D2BB: B2 05        	lda	(<L145+lp_1)
  2464 00:D2BD: 29 FF 00     	and	#$ff
  2465 00:D2C0: 85 01        	sta	<R0
  2466 00:D2C2: 18           	clc
  2467 00:D2C3: A5 05        	lda	<L145+lp_1
  2468 00:D2C5: 65 01        	adc	<R0
  2469 00:D2C7: 85 05        	sta	<L145+lp_1
  2470                        L10082:
  2471 00:D2C9: B2 05        	lda	(<L145+lp_1)
  2472 00:D2CB: 29 FF 00     	and	#$ff
  2473 00:D2CE: D0 03        	bne	L146
  2474 00:D2D0: 82 03 00     	brl	L10083
  2475                        L146:
  2476 00:D2D3: 82 E5 FF     	brl	L10081
  2477                        L10083:
  2478 00:D2D6: 38           	sec
  2479 00:D2D7: A9 B8 7D     	lda	#<listbuf+BUF_SIZE
  2480 00:D2DA: E5 05        	sbc	<L145+lp_1
  2481 00:D2DC: 85 01        	sta	<R0
  2482 00:D2DE: 18           	clc
  2483 00:D2DF: A9 FF FF     	lda	#$ffff
  2484 00:D2E2: 65 01        	adc	<R0
  2485                        L147:
  2486 00:D2E4: A8           	tay
  2487 00:D2E5: 2B           	pld
  2488 00:D2E6: 3B           	tsc
  2489 00:D2E7: 18           	clc
  2490 00:D2E8: 69 06 00     	adc	#L144
  2491 00:D2EB: 1B           	tcs
  2492 00:D2EC: 98           	tya
  2493 00:D2ED: 60           	rts
  2494             00000006   L144	equ	6
  2495             00000005   L145	equ	5
  2496                        
  2497                        inslist:
  2498                        	longa	on
  2499                        	longi	on
  2500 00:D2EE: 3B           	tsc
  2501 00:D2EF: 38           	sec
  2502 00:D2F0: E9 10 00     	sbc	#L148
  2503 00:D2F3: 1B           	tcs
  2504 00:D2F4: 0B           	phd
  2505 00:D2F5: 5B           	tcd
  2506             00000000   insp_1	set	0
  2507             00000002   p1_1	set	2
  2508             00000004   p2_1	set	4
  2509             00000006   len_1	set	6
  2510 00:D2F6: AD A2 7E     	lda	ibuf
  2511 00:D2F9: 29 FF 00     	and	#$ff
  2512 00:D2FC: 85 01        	sta	<R0
  2513 00:D2FE: 20 AB D2     	jsr	getsize
  2514 00:D301: 85 05        	sta	<R1
  2515 00:D303: 38           	sec
  2516 00:D304: A5 05        	lda	<R1
  2517 00:D306: E5 01        	sbc	<R0
  2518 00:D308: 70 03        	bvs	L150
  2519 00:D30A: 49 00 80     	eor	#$8000
  2520                        L150:
  2521 00:D30D: 10 03        	bpl	L151
  2522 00:D30F: 82 11 00     	brl	L10084
  2523                        L151:
  2524 00:D312: E2 20        	sep	#$20
  2525                        	longa	off
  2526 00:D314: A9 05        	lda	#$5
  2527 00:D316: 8D E2 7F     	sta	err
  2528 00:D319: C2 20        	rep	#$20
  2529                        	longa	on
  2530                        L152:
  2531 00:D31B: 2B           	pld
  2532 00:D31C: 3B           	tsc
  2533 00:D31D: 18           	clc
  2534 00:D31E: 69 10 00     	adc	#L148
  2535 00:D321: 1B           	tcs
  2536 00:D322: 60           	rts
  2537                        L10084:
  2538 00:D323: F4 A2 7E     	pea	#<ibuf
  2539 00:D326: 20 14 D2     	jsr	getlineno
  2540 00:D329: 48           	pha
  2541 00:D32A: 20 5A D2     	jsr	getlp
  2542 00:D32D: 85 09        	sta	<L149+insp_1
  2543 00:D32F: F4 A2 7E     	pea	#<ibuf
  2544 00:D332: 20 14 D2     	jsr	getlineno
  2545 00:D335: 85 01        	sta	<R0
  2546 00:D337: D4 09        	pei	<L149+insp_1
  2547 00:D339: 20 14 D2     	jsr	getlineno
  2548 00:D33C: 85 05        	sta	<R1
  2549 00:D33E: A5 05        	lda	<R1
  2550 00:D340: C5 01        	cmp	<R0
  2551 00:D342: F0 03        	beq	L153
  2552 00:D344: 82 47 00     	brl	L10085
  2553                        L153:
  2554 00:D347: A5 09        	lda	<L149+insp_1
  2555 00:D349: 85 0B        	sta	<L149+p1_1
  2556 00:D34B: B2 0B        	lda	(<L149+p1_1)
  2557 00:D34D: 29 FF 00     	and	#$ff
  2558 00:D350: 85 01        	sta	<R0
  2559 00:D352: 18           	clc
  2560 00:D353: A5 0B        	lda	<L149+p1_1
  2561 00:D355: 65 01        	adc	<R0
  2562 00:D357: 85 0D        	sta	<L149+p2_1
  2563                        L10086:
  2564 00:D359: B2 0D        	lda	(<L149+p2_1)
  2565 00:D35B: 29 FF 00     	and	#$ff
  2566 00:D35E: 85 0F        	sta	<L149+len_1
  2567 00:D360: A5 0F        	lda	<L149+len_1
  2568 00:D362: D0 03        	bne	L154
  2569 00:D364: 82 1F 00     	brl	L10087
  2570                        L154:
  2571                        L10088:
  2572 00:D367: A5 0F        	lda	<L149+len_1
  2573 00:D369: 85 01        	sta	<R0
  2574 00:D36B: C6 0F        	dec	<L149+len_1
  2575 00:D36D: A5 01        	lda	<R0
  2576 00:D36F: D0 03        	bne	L155
  2577 00:D371: 82 0F 00     	brl	L10089
  2578                        L155:
  2579 00:D374: E2 20        	sep	#$20
  2580                        	longa	off
  2581 00:D376: B2 0D        	lda	(<L149+p2_1)
  2582 00:D378: 92 0B        	sta	(<L149+p1_1)
  2583 00:D37A: C2 20        	rep	#$20
  2584                        	longa	on
  2585 00:D37C: E6 0D        	inc	<L149+p2_1
  2586 00:D37E: E6 0B        	inc	<L149+p1_1
  2587 00:D380: 82 E4 FF     	brl	L10088
  2588                        L10089:
  2589 00:D383: 82 D3 FF     	brl	L10086
  2590                        L10087:
  2591 00:D386: E2 20        	sep	#$20
  2592                        	longa	off
  2593 00:D388: A9 00        	lda	#$0
  2594 00:D38A: 92 0B        	sta	(<L149+p1_1)
  2595 00:D38C: C2 20        	rep	#$20
  2596                        	longa	on
  2597                        L10085:
  2598 00:D38E: E2 20        	sep	#$20
  2599                        	longa	off
  2600 00:D390: AD A2 7E     	lda	ibuf
  2601 00:D393: C9 04        	cmp	#<$4
  2602 00:D395: C2 20        	rep	#$20
  2603                        	longa	on
  2604 00:D397: F0 03        	beq	L156
  2605 00:D399: 82 03 00     	brl	L10090
  2606                        L156:
  2607 00:D39C: 82 7C FF     	brl	L152
  2608                        L10090:
  2609 00:D39F: A5 09        	lda	<L149+insp_1
  2610 00:D3A1: 85 0B        	sta	<L149+p1_1
  2611 00:D3A3: 82 0E 00     	brl	L10092
  2612                        L10091:
  2613 00:D3A6: B2 0B        	lda	(<L149+p1_1)
  2614 00:D3A8: 29 FF 00     	and	#$ff
  2615 00:D3AB: 85 01        	sta	<R0
  2616 00:D3AD: 18           	clc
  2617 00:D3AE: A5 0B        	lda	<L149+p1_1
  2618 00:D3B0: 65 01        	adc	<R0
  2619 00:D3B2: 85 0B        	sta	<L149+p1_1
  2620                        L10092:
  2621 00:D3B4: B2 0B        	lda	(<L149+p1_1)
  2622 00:D3B6: 29 FF 00     	and	#$ff
  2623 00:D3B9: D0 03        	bne	L157
  2624 00:D3BB: 82 03 00     	brl	L10093
  2625                        L157:
  2626 00:D3BE: 82 E5 FF     	brl	L10091
  2627                        L10093:
  2628 00:D3C1: 38           	sec
  2629 00:D3C2: A5 0B        	lda	<L149+p1_1
  2630 00:D3C4: E5 09        	sbc	<L149+insp_1
  2631 00:D3C6: 85 01        	sta	<R0
  2632 00:D3C8: A5 01        	lda	<R0
  2633 00:D3CA: 1A           	ina
  2634 00:D3CB: 85 0F        	sta	<L149+len_1
  2635 00:D3CD: AD A2 7E     	lda	ibuf
  2636 00:D3D0: 29 FF 00     	and	#$ff
  2637 00:D3D3: 85 01        	sta	<R0
  2638 00:D3D5: 18           	clc
  2639 00:D3D6: A5 0B        	lda	<L149+p1_1
  2640 00:D3D8: 65 01        	adc	<R0
  2641 00:D3DA: 85 0D        	sta	<L149+p2_1
  2642                        L10094:
  2643 00:D3DC: A5 0F        	lda	<L149+len_1
  2644 00:D3DE: 85 01        	sta	<R0
  2645 00:D3E0: C6 0F        	dec	<L149+len_1
  2646 00:D3E2: A5 01        	lda	<R0
  2647 00:D3E4: D0 03        	bne	L158
  2648 00:D3E6: 82 0F 00     	brl	L10095
  2649                        L158:
  2650 00:D3E9: E2 20        	sep	#$20
  2651                        	longa	off
  2652 00:D3EB: B2 0B        	lda	(<L149+p1_1)
  2653 00:D3ED: 92 0D        	sta	(<L149+p2_1)
  2654 00:D3EF: C2 20        	rep	#$20
  2655                        	longa	on
  2656 00:D3F1: C6 0B        	dec	<L149+p1_1
  2657 00:D3F3: C6 0D        	dec	<L149+p2_1
  2658 00:D3F5: 82 E4 FF     	brl	L10094
  2659                        L10095:
  2660 00:D3F8: AD A2 7E     	lda	ibuf
  2661 00:D3FB: 29 FF 00     	and	#$ff
  2662 00:D3FE: 85 0F        	sta	<L149+len_1
  2663 00:D400: A5 09        	lda	<L149+insp_1
  2664 00:D402: 85 0B        	sta	<L149+p1_1
  2665 00:D404: A9 A2 7E     	lda	#<ibuf
  2666 00:D407: 85 0D        	sta	<L149+p2_1
  2667                        L10096:
  2668 00:D409: A5 0F        	lda	<L149+len_1
  2669 00:D40B: 85 01        	sta	<R0
  2670 00:D40D: C6 0F        	dec	<L149+len_1
  2671 00:D40F: A5 01        	lda	<R0
  2672 00:D411: D0 03        	bne	L159
  2673 00:D413: 82 0F 00     	brl	L10097
  2674                        L159:
  2675 00:D416: E2 20        	sep	#$20
  2676                        	longa	off
  2677 00:D418: B2 0D        	lda	(<L149+p2_1)
  2678 00:D41A: 92 0B        	sta	(<L149+p1_1)
  2679 00:D41C: C2 20        	rep	#$20
  2680                        	longa	on
  2681 00:D41E: E6 0D        	inc	<L149+p2_1
  2682 00:D420: E6 0B        	inc	<L149+p1_1
  2683 00:D422: 82 E4 FF     	brl	L10096
  2684                        L10097:
  2685 00:D425: 82 F3 FE     	brl	L152
  2686             00000010   L148	equ	16
  2687             00000009   L149	equ	9
  2688                        
  2689                        putlist:
  2690                        	longa	on
  2691                        	longi	on
  2692 00:D428: 3B           	tsc
  2693 00:D429: 38           	sec
  2694 00:D42A: E9 0E 00     	sbc	#L160
  2695 00:D42D: 1B           	tcs
  2696 00:D42E: 0B           	phd
  2697 00:D42F: 5B           	tcd
  2698             00000003   ip_0	set	3
  2699             00000000   i_1	set	0
  2700                        L10098:
  2701 00:D430: E2 20        	sep	#$20
  2702                        	longa	off
  2703 00:D432: B2 11        	lda	(<L160+ip_0)
  2704 00:D434: C9 26        	cmp	#<$26
  2705 00:D436: C2 20        	rep	#$20
  2706                        	longa	on
  2707 00:D438: D0 03        	bne	L162
  2708 00:D43A: 82 DF 01     	brl	L10099
  2709                        L162:
  2710 00:D43D: E2 20        	sep	#$20
  2711                        	longa	off
  2712 00:D43F: B2 11        	lda	(<L160+ip_0)
  2713 00:D441: C9 23        	cmp	#<$23
  2714 00:D443: C2 20        	rep	#$20
  2715                        	longa	on
  2716 00:D445: 90 03        	bcc	L163
  2717 00:D447: 82 85 00     	brl	L10100
  2718                        L163:
  2719 00:D44A: B2 11        	lda	(<L160+ip_0)
  2720 00:D44C: 29 FF 00     	and	#$ff
  2721 00:D44F: 85 05        	sta	<R1
  2722 00:D451: A5 05        	lda	<R1
  2723 00:D453: 0A           	asl	A
  2724 00:D454: 85 01        	sta	<R0
  2725 00:D456: 18           	clc
  2726 00:D457: A9 AD C5     	lda	#<kwtbl
  2727 00:D45A: 65 01        	adc	<R0
  2728 00:D45C: 85 05        	sta	<R1
  2729 00:D45E: B2 05        	lda	(<R1)
  2730 00:D460: 48           	pha
  2731 00:D461: 20 FA C9     	jsr	c_puts
  2732 00:D464: F4 13 00     	pea	#<$13
  2733 00:D467: F4 73 C6     	pea	#<i_nsa
  2734 00:D46A: B2 11        	lda	(<L160+ip_0)
  2735 00:D46C: 48           	pha
  2736 00:D46D: 20 95 C6     	jsr	sstyle
  2737 00:D470: 29 FF 00     	and	#$ff
  2738 00:D473: F0 03        	beq	L164
  2739 00:D475: 82 06 00     	brl	L10101
  2740                        L164:
  2741 00:D478: F4 20 00     	pea	#<$20
  2742 00:D47B: 20 26 C4     	jsr	c_putch
  2743                        L10101:
  2744 00:D47E: E2 20        	sep	#$20
  2745                        	longa	off
  2746 00:D480: B2 11        	lda	(<L160+ip_0)
  2747 00:D482: C9 08        	cmp	#<$8
  2748 00:D484: C2 20        	rep	#$20
  2749                        	longa	on
  2750 00:D486: F0 03        	beq	L165
  2751 00:D488: 82 3F 00     	brl	L10102
  2752                        L165:
  2753 00:D48B: E6 11        	inc	<L160+ip_0
  2754 00:D48D: E2 20        	sep	#$20
  2755                        	longa	off
  2756 00:D48F: B2 11        	lda	(<L160+ip_0)
  2757 00:D491: 85 0D        	sta	<L161+i_1
  2758 00:D493: C2 20        	rep	#$20
  2759                        	longa	on
  2760 00:D495: E6 11        	inc	<L160+ip_0
  2761                        L10103:
  2762 00:D497: E2 20        	sep	#$20
  2763                        	longa	off
  2764 00:D499: A5 0D        	lda	<L161+i_1
  2765 00:D49B: 85 01        	sta	<R0
  2766 00:D49D: C2 20        	rep	#$20
  2767                        	longa	on
  2768 00:D49F: E2 20        	sep	#$20
  2769                        	longa	off
  2770 00:D4A1: C6 0D        	dec	<L161+i_1
  2771 00:D4A3: C2 20        	rep	#$20
  2772                        	longa	on
  2773 00:D4A5: A5 01        	lda	<R0
  2774 00:D4A7: 29 FF 00     	and	#$ff
  2775 00:D4AA: D0 03        	bne	L166
  2776 00:D4AC: 82 0F 00     	brl	L10104
  2777                        L166:
  2778 00:D4AF: A5 11        	lda	<L160+ip_0
  2779 00:D4B1: 85 01        	sta	<R0
  2780 00:D4B3: E6 11        	inc	<L160+ip_0
  2781 00:D4B5: B2 01        	lda	(<R0)
  2782 00:D4B7: 48           	pha
  2783 00:D4B8: 20 26 C4     	jsr	c_putch
  2784 00:D4BB: 82 D9 FF     	brl	L10103
  2785                        L10104:
  2786                        L167:
  2787 00:D4BE: A5 0F        	lda	<L160+1
  2788 00:D4C0: 85 11        	sta	<L160+1+2
  2789 00:D4C2: 2B           	pld
  2790 00:D4C3: 3B           	tsc
  2791 00:D4C4: 18           	clc
  2792 00:D4C5: 69 10 00     	adc	#L160+2
  2793 00:D4C8: 1B           	tcs
  2794 00:D4C9: 60           	rts
  2795                        L10102:
  2796 00:D4CA: E6 11        	inc	<L160+ip_0
  2797 00:D4CC: 82 4A 01     	brl	L10105
  2798                        L10100:
  2799 00:D4CF: E2 20        	sep	#$20
  2800                        	longa	off
  2801 00:D4D1: B2 11        	lda	(<L160+ip_0)
  2802 00:D4D3: C9 23        	cmp	#<$23
  2803 00:D4D5: C2 20        	rep	#$20
  2804                        	longa	on
  2805 00:D4D7: F0 03        	beq	L168
  2806 00:D4D9: 82 47 00     	brl	L10106
  2807                        L168:
  2808 00:D4DC: E6 11        	inc	<L160+ip_0
  2809 00:D4DE: F4 00 00     	pea	#<$0
  2810 00:D4E1: B2 11        	lda	(<L160+ip_0)
  2811 00:D4E3: 29 FF 00     	and	#$ff
  2812 00:D4E6: 85 01        	sta	<R0
  2813 00:D4E8: A0 01 00     	ldy	#$1
  2814 00:D4EB: B1 11        	lda	(<L160+ip_0),Y
  2815 00:D4ED: 29 FF 00     	and	#$ff
  2816 00:D4F0: 85 09        	sta	<R2
  2817 00:D4F2: A5 09        	lda	<R2
  2818 00:D4F4: EB           	xba
  2819 00:D4F5: 29 00 FF     	and	#$ff00
  2820 00:D4F8: 85 05        	sta	<R1
  2821 00:D4FA: A5 05        	lda	<R1
  2822 00:D4FC: 05 01        	ora	<R0
  2823 00:D4FE: 48           	pha
  2824 00:D4FF: 20 3F CB     	jsr	putnum
  2825 00:D502: E6 11        	inc	<L160+ip_0
  2826 00:D504: E6 11        	inc	<L160+ip_0
  2827 00:D506: F4 0F 00     	pea	#<$f
  2828 00:D509: F4 86 C6     	pea	#<i_nsb
  2829 00:D50C: B2 11        	lda	(<L160+ip_0)
  2830 00:D50E: 48           	pha
  2831 00:D50F: 20 95 C6     	jsr	sstyle
  2832 00:D512: 29 FF 00     	and	#$ff
  2833 00:D515: F0 03        	beq	L169
  2834 00:D517: 82 06 00     	brl	L10107
  2835                        L169:
  2836 00:D51A: F4 20 00     	pea	#<$20
  2837 00:D51D: 20 26 C4     	jsr	c_putch
  2838                        L10107:
  2839 00:D520: 82 F6 00     	brl	L10108
  2840                        L10106:
  2841 00:D523: E2 20        	sep	#$20
  2842                        	longa	off
  2843 00:D525: B2 11        	lda	(<L160+ip_0)
  2844 00:D527: C9 24        	cmp	#<$24
  2845 00:D529: C2 20        	rep	#$20
  2846                        	longa	on
  2847 00:D52B: F0 03        	beq	L170
  2848 00:D52D: 82 36 00     	brl	L10109
  2849                        L170:
  2850 00:D530: E6 11        	inc	<L160+ip_0
  2851 00:D532: A5 11        	lda	<L160+ip_0
  2852 00:D534: 85 01        	sta	<R0
  2853 00:D536: E6 11        	inc	<L160+ip_0
  2854 00:D538: B2 01        	lda	(<R0)
  2855 00:D53A: 29 FF 00     	and	#$ff
  2856 00:D53D: 85 01        	sta	<R0
  2857 00:D53F: 18           	clc
  2858 00:D540: A9 41 00     	lda	#$41
  2859 00:D543: 65 01        	adc	<R0
  2860 00:D545: 48           	pha
  2861 00:D546: 20 26 C4     	jsr	c_putch
  2862 00:D549: F4 0F 00     	pea	#<$f
  2863 00:D54C: F4 86 C6     	pea	#<i_nsb
  2864 00:D54F: B2 11        	lda	(<L160+ip_0)
  2865 00:D551: 48           	pha
  2866 00:D552: 20 95 C6     	jsr	sstyle
  2867 00:D555: 29 FF 00     	and	#$ff
  2868 00:D558: F0 03        	beq	L171
  2869 00:D55A: 82 06 00     	brl	L10110
  2870                        L171:
  2871 00:D55D: F4 20 00     	pea	#<$20
  2872 00:D560: 20 26 C4     	jsr	c_putch
  2873                        L10110:
  2874 00:D563: 82 B3 00     	brl	L10111
  2875                        L10109:
  2876 00:D566: E2 20        	sep	#$20
  2877                        	longa	off
  2878 00:D568: B2 11        	lda	(<L160+ip_0)
  2879 00:D56A: C9 25        	cmp	#<$25
  2880 00:D56C: C2 20        	rep	#$20
  2881                        	longa	on
  2882 00:D56E: F0 03        	beq	L172
  2883 00:D570: 82 9A 00     	brl	L10112
  2884                        L172:
  2885             00000001   c_2	set	1
  2886 00:D573: E2 20        	sep	#$20
  2887                        	longa	off
  2888 00:D575: A9 22        	lda	#$22
  2889 00:D577: 85 0E        	sta	<L161+c_2
  2890 00:D579: C2 20        	rep	#$20
  2891                        	longa	on
  2892 00:D57B: E6 11        	inc	<L160+ip_0
  2893 00:D57D: E2 20        	sep	#$20
  2894                        	longa	off
  2895 00:D57F: B2 11        	lda	(<L160+ip_0)
  2896 00:D581: 85 0D        	sta	<L161+i_1
  2897 00:D583: C2 20        	rep	#$20
  2898                        	longa	on
  2899 00:D585: 82 06 00     	brl	L10114
  2900                        L10113:
  2901 00:D588: E2 20        	sep	#$20
  2902                        	longa	off
  2903 00:D58A: C6 0D        	dec	<L161+i_1
  2904 00:D58C: C2 20        	rep	#$20
  2905                        	longa	on
  2906                        L10114:
  2907 00:D58E: A5 0D        	lda	<L161+i_1
  2908 00:D590: 29 FF 00     	and	#$ff
  2909 00:D593: D0 03        	bne	L173
  2910 00:D595: 82 24 00     	brl	L10115
  2911                        L173:
  2912 00:D598: A5 0D        	lda	<L161+i_1
  2913 00:D59A: 29 FF 00     	and	#$ff
  2914 00:D59D: 85 01        	sta	<R0
  2915 00:D59F: E2 20        	sep	#$20
  2916                        	longa	off
  2917 00:D5A1: A4 01        	ldy	<R0
  2918 00:D5A3: B1 11        	lda	(<L160+ip_0),Y
  2919 00:D5A5: C9 22        	cmp	#<$22
  2920 00:D5A7: C2 20        	rep	#$20
  2921                        	longa	on
  2922 00:D5A9: F0 03        	beq	L174
  2923 00:D5AB: 82 0B 00     	brl	L10116
  2924                        L174:
  2925 00:D5AE: E2 20        	sep	#$20
  2926                        	longa	off
  2927 00:D5B0: A9 27        	lda	#$27
  2928 00:D5B2: 85 0E        	sta	<L161+c_2
  2929 00:D5B4: C2 20        	rep	#$20
  2930                        	longa	on
  2931 00:D5B6: 82 03 00     	brl	L10115
  2932                        L10116:
  2933 00:D5B9: 82 CC FF     	brl	L10113
  2934                        L10115:
  2935 00:D5BC: D4 0E        	pei	<L161+c_2
  2936 00:D5BE: 20 26 C4     	jsr	c_putch
  2937 00:D5C1: E2 20        	sep	#$20
  2938                        	longa	off
  2939 00:D5C3: B2 11        	lda	(<L160+ip_0)
  2940 00:D5C5: 85 0D        	sta	<L161+i_1
  2941 00:D5C7: C2 20        	rep	#$20
  2942                        	longa	on
  2943 00:D5C9: E6 11        	inc	<L160+ip_0
  2944                        L10117:
  2945 00:D5CB: E2 20        	sep	#$20
  2946                        	longa	off
  2947 00:D5CD: A5 0D        	lda	<L161+i_1
  2948 00:D5CF: 85 01        	sta	<R0
  2949 00:D5D1: C2 20        	rep	#$20
  2950                        	longa	on
  2951 00:D5D3: E2 20        	sep	#$20
  2952                        	longa	off
  2953 00:D5D5: C6 0D        	dec	<L161+i_1
  2954 00:D5D7: C2 20        	rep	#$20
  2955                        	longa	on
  2956 00:D5D9: A5 01        	lda	<R0
  2957 00:D5DB: 29 FF 00     	and	#$ff
  2958 00:D5DE: D0 03        	bne	L175
  2959 00:D5E0: 82 0F 00     	brl	L10118
  2960                        L175:
  2961 00:D5E3: A5 11        	lda	<L160+ip_0
  2962 00:D5E5: 85 01        	sta	<R0
  2963 00:D5E7: E6 11        	inc	<L160+ip_0
  2964 00:D5E9: B2 01        	lda	(<R0)
  2965 00:D5EB: 48           	pha
  2966 00:D5EC: 20 26 C4     	jsr	c_putch
  2967 00:D5EF: 82 D9 FF     	brl	L10117
  2968                        L10118:
  2969 00:D5F2: D4 0E        	pei	<L161+c_2
  2970 00:D5F4: 20 26 C4     	jsr	c_putch
  2971 00:D5F7: E2 20        	sep	#$20
  2972                        	longa	off
  2973 00:D5F9: B2 11        	lda	(<L160+ip_0)
  2974 00:D5FB: C9 24        	cmp	#<$24
  2975 00:D5FD: C2 20        	rep	#$20
  2976                        	longa	on
  2977 00:D5FF: F0 03        	beq	L176
  2978 00:D601: 82 06 00     	brl	L10119
  2979                        L176:
  2980 00:D604: F4 20 00     	pea	#<$20
  2981 00:D607: 20 26 C4     	jsr	c_putch
  2982                        L10119:
  2983 00:D60A: 82 0C 00     	brl	L10120
  2984                        L10112:
  2985 00:D60D: E2 20        	sep	#$20
  2986                        	longa	off
  2987 00:D60F: A9 15        	lda	#$15
  2988 00:D611: 8D E2 7F     	sta	err
  2989 00:D614: C2 20        	rep	#$20
  2990                        	longa	on
  2991 00:D616: 82 A5 FE     	brl	L167
  2992                        L10120:
  2993                        L10111:
  2994                        L10108:
  2995                        L10105:
  2996 00:D619: 82 14 FE     	brl	L10098
  2997                        L10099:
  2998 00:D61C: 82 9F FE     	brl	L167
  2999             0000000E   L160	equ	14
  3000             0000000D   L161	equ	13
  3001                        
  3002                        getparam:
  3003                        	longa	on
  3004                        	longi	on
  3005 00:D61F: 3B           	tsc
  3006 00:D620: 38           	sec
  3007 00:D621: E9 06 00     	sbc	#L177
  3008 00:D624: 1B           	tcs
  3009 00:D625: 0B           	phd
  3010 00:D626: 5B           	tcd
  3011             00000000   value_1	set	0
  3012 00:D627: AD EA 7D     	lda	cip
  3013 00:D62A: 85 01        	sta	<R0
  3014 00:D62C: E2 20        	sep	#$20
  3015                        	longa	off
  3016 00:D62E: B2 01        	lda	(<R0)
  3017 00:D630: C9 13        	cmp	#<$13
  3018 00:D632: C2 20        	rep	#$20
  3019                        	longa	on
  3020 00:D634: D0 03        	bne	L179
  3021 00:D636: 82 16 00     	brl	L10121
  3022                        L179:
  3023 00:D639: E2 20        	sep	#$20
  3024                        	longa	off
  3025 00:D63B: A9 11        	lda	#$11
  3026 00:D63D: 8D E2 7F     	sta	err
  3027 00:D640: C2 20        	rep	#$20
  3028                        	longa	on
  3029 00:D642: A9 00 00     	lda	#$0
  3030                        L180:
  3031 00:D645: A8           	tay
  3032 00:D646: 2B           	pld
  3033 00:D647: 3B           	tsc
  3034 00:D648: 18           	clc
  3035 00:D649: 69 06 00     	adc	#L177
  3036 00:D64C: 1B           	tcs
  3037 00:D64D: 98           	tya
  3038 00:D64E: 60           	rts
  3039                        L10121:
  3040 00:D64F: EE EA 7D     	inc	cip
  3041 00:D652: 20 31 D9     	jsr	iexp
  3042 00:D655: 85 05        	sta	<L178+value_1
  3043 00:D657: AD E2 7F     	lda	err
  3044 00:D65A: 29 FF 00     	and	#$ff
  3045 00:D65D: D0 03        	bne	L181
  3046 00:D65F: 82 06 00     	brl	L10122
  3047                        L181:
  3048 00:D662: A9 00 00     	lda	#$0
  3049 00:D665: 82 DD FF     	brl	L180
  3050                        L10122:
  3051 00:D668: AD EA 7D     	lda	cip
  3052 00:D66B: 85 01        	sta	<R0
  3053 00:D66D: E2 20        	sep	#$20
  3054                        	longa	off
  3055 00:D66F: B2 01        	lda	(<R0)
  3056 00:D671: C9 14        	cmp	#<$14
  3057 00:D673: C2 20        	rep	#$20
  3058                        	longa	on
  3059 00:D675: D0 03        	bne	L182
  3060 00:D677: 82 0F 00     	brl	L10123
  3061                        L182:
  3062 00:D67A: E2 20        	sep	#$20
  3063                        	longa	off
  3064 00:D67C: A9 11        	lda	#$11
  3065 00:D67E: 8D E2 7F     	sta	err
  3066 00:D681: C2 20        	rep	#$20
  3067                        	longa	on
  3068 00:D683: A9 00 00     	lda	#$0
  3069 00:D686: 82 BC FF     	brl	L180
  3070                        L10123:
  3071 00:D689: EE EA 7D     	inc	cip
  3072 00:D68C: A5 05        	lda	<L178+value_1
  3073 00:D68E: 82 B4 FF     	brl	L180
  3074             00000006   L177	equ	6
  3075             00000005   L178	equ	5
  3076                        
  3077                        ivalue:
  3078                        	longa	on
  3079                        	longi	on
  3080 00:D691: 3B           	tsc
  3081 00:D692: 38           	sec
  3082 00:D693: E9 0E 00     	sbc	#L183
  3083 00:D696: 1B           	tcs
  3084 00:D697: 0B           	phd
  3085 00:D698: 5B           	tcd
  3086             00000000   value_1	set	0
  3087 00:D699: AD EA 7D     	lda	cip
  3088 00:D69C: 85 01        	sta	<R0
  3089 00:D69E: B2 01        	lda	(<R0)
  3090 00:D6A0: 29 FF 00     	and	#$ff
  3091 00:D6A3: 82 56 01     	brl	L10124
  3092                        L10126:				;I_NUM (35)
  3093 00:D6A6: EE EA 7D     	inc	cip
  3094 00:D6A9: AD EA 7D     	lda	cip
  3095 00:D6AC: 85 01        	sta	<R0
  3096 00:D6AE: B2 01        	lda	(<R0)
  3097 00:D6B0: 29 FF 00     	and	#$ff
  3098 00:D6B3: 85 01        	sta	<R0
  3099 00:D6B5: AD EA 7D     	lda	cip
  3100 00:D6B8: 85 09        	sta	<R2
  3101 00:D6BA: A0 01 00     	ldy	#$1
  3102 00:D6BD: B1 09        	lda	(<R2),Y
  3103 00:D6BF: 29 FF 00     	and	#$ff
  3104 00:D6C2: 85 09        	sta	<R2
  3105 00:D6C4: A5 09        	lda	<R2
  3106 00:D6C6: EB           	xba
  3107 00:D6C7: 29 00 FF     	and	#$ff00
  3108 00:D6CA: 85 05        	sta	<R1
  3109 00:D6CC: A5 05        	lda	<R1
  3110 00:D6CE: 05 01        	ora	<R0
  3111 00:D6D0: 85 0D        	sta	<L184+value_1
  3112 00:D6D2: EE EA 7D     	inc	cip
  3113 00:D6D5: EE EA 7D     	inc	cip
  3114 00:D6D8: 82 56 01     	brl	L10125
  3115                        L10127:				;I_PLUS (16)
  3116 00:D6DB: EE EA 7D     	inc	cip
  3117 00:D6DE: 20 91 D6     	jsr	ivalue
  3118 00:D6E1: 85 0D        	sta	<L184+value_1
  3119 00:D6E3: 82 4B 01     	brl	L10125
  3120                        L10128:				;I_MINUS (15)
  3121 00:D6E6: EE EA 7D     	inc	cip
  3122 00:D6E9: 20 91 D6     	jsr	ivalue
  3123 00:D6EC: 85 01        	sta	<R0
  3124 00:D6EE: 38           	sec
  3125 00:D6EF: A9 00 00     	lda	#$0
  3126 00:D6F2: E5 01        	sbc	<R0
  3127 00:D6F4: 85 0D        	sta	<L184+value_1
  3128 00:D6F6: 82 38 01     	brl	L10125
  3129                        L10129:				;I_VAR (36)
  3130 00:D6F9: EE EA 7D     	inc	cip
  3131 00:D6FC: AD EA 7D     	lda	cip
  3132 00:D6FF: 85 05        	sta	<R1
  3133 00:D701: B2 05        	lda	(<R1)
  3134 00:D703: 29 FF 00     	and	#$ff
  3135 00:D706: 85 05        	sta	<R1
  3136 00:D708: A5 05        	lda	<R1
  3137 00:D70A: 0A           	asl	A
  3138 00:D70B: 85 01        	sta	<R0
  3139 00:D70D: 18           	clc
  3140 00:D70E: A9 6E 7E     	lda	#<var
  3141 00:D711: 65 01        	adc	<R0
  3142 00:D713: 85 05        	sta	<R1
  3143 00:D715: B2 05        	lda	(<R1)
  3144 00:D717: 85 0D        	sta	<L184+value_1
  3145 00:D719: EE EA 7D     	inc	cip
  3146 00:D71C: 82 12 01     	brl	L10125
  3147                        L10130:				;I_OPEN (19)
  3148 00:D71F: 20 1F D6     	jsr	getparam
  3149 00:D722: 85 0D        	sta	<L184+value_1
  3150 00:D724: 82 0A 01     	brl	L10125
  3151                        L10131:				;I_ARRAY (27)
  3152 00:D727: EE EA 7D     	inc	cip
  3153 00:D72A: 20 1F D6     	jsr	getparam
  3154 00:D72D: 85 0D        	sta	<L184+value_1
  3155 00:D72F: AD E2 7F     	lda	err
  3156 00:D732: 29 FF 00     	and	#$ff
  3157 00:D735: F0 03        	beq	L185
  3158 00:D737: 82 F7 00     	brl	L10125
  3159                        L185:
  3160 00:D73A: 38           	sec
  3161 00:D73B: A5 0D        	lda	<L184+value_1
  3162 00:D73D: E9 40 00     	sbc	#<$40
  3163 00:D740: 70 03        	bvs	L186
  3164 00:D742: 49 00 80     	eor	#$8000
  3165                        L186:
  3166 00:D745: 30 03        	bmi	L187
  3167 00:D747: 82 0C 00     	brl	L10132
  3168                        L187:
  3169 00:D74A: E2 20        	sep	#$20
  3170                        	longa	off
  3171 00:D74C: A9 03        	lda	#$3
  3172 00:D74E: 8D E2 7F     	sta	err
  3173 00:D751: C2 20        	rep	#$20
  3174                        	longa	on
  3175 00:D753: 82 DB 00     	brl	L10125
  3176                        L10132:
  3177 00:D756: A5 0D        	lda	<L184+value_1
  3178 00:D758: 0A           	asl	A
  3179 00:D759: 85 01        	sta	<R0
  3180 00:D75B: 18           	clc
  3181 00:D75C: A9 EE 7D     	lda	#<arr
  3182 00:D75F: 65 01        	adc	<R0
  3183 00:D761: 85 05        	sta	<R1
  3184 00:D763: B2 05        	lda	(<R1)
  3185 00:D765: 85 0D        	sta	<L184+value_1
  3186 00:D767: 82 C7 00     	brl	L10125
  3187                        L10133:				;I_RND (28)
  3188 00:D76A: EE EA 7D     	inc	cip
  3189 00:D76D: 20 1F D6     	jsr	getparam
  3190 00:D770: 85 0D        	sta	<L184+value_1
  3191 00:D772: AD E2 7F     	lda	err
  3192 00:D775: 29 FF 00     	and	#$ff
  3193 00:D778: F0 03        	beq	L188
  3194 00:D77A: 82 B4 00     	brl	L10125
  3195                        L188:
  3196 00:D77D: D4 0D        	pei	<L184+value_1
  3197 00:D77F: 20 8A C5     	jsr	getrnd
  3198 00:D782: 85 0D        	sta	<L184+value_1
  3199 00:D784: 82 AA 00     	brl	L10125
  3200                        L10134:				;I_ABS (29)
  3201 00:D787: EE EA 7D     	inc	cip
  3202 00:D78A: 20 1F D6     	jsr	getparam
  3203 00:D78D: 85 0D        	sta	<L184+value_1
  3204 00:D78F: AD E2 7F     	lda	err
  3205 00:D792: 29 FF 00     	and	#$ff
  3206 00:D795: F0 03        	beq	L189
  3207 00:D797: 82 97 00     	brl	L10125
  3208                        L189:
  3209 00:D79A: A5 0D        	lda	<L184+value_1
  3210 00:D79C: 30 03        	bmi	L190
  3211 00:D79E: 82 08 00     	brl	L10135
  3212                        L190:
  3213 00:D7A1: 38           	sec
  3214 00:D7A2: A9 00 00     	lda	#$0
  3215 00:D7A5: E5 0D        	sbc	<L184+value_1
  3216 00:D7A7: 85 0D        	sta	<L184+value_1
  3217                        L10135:
  3218 00:D7A9: 82 85 00     	brl	L10125
  3219                        L10136:				;I_SIZE (30)
  3220 00:D7AC: EE EA 7D     	inc	cip
  3221 00:D7AF: AD EA 7D     	lda	cip
  3222 00:D7B2: 85 01        	sta	<R0
  3223 00:D7B4: E2 20        	sep	#$20
  3224                        	longa	off
  3225 00:D7B6: B2 01        	lda	(<R0)
  3226 00:D7B8: C9 13        	cmp	#<$13
  3227 00:D7BA: C2 20        	rep	#$20
  3228                        	longa	on
  3229 00:D7BC: F0 03        	beq	L192
  3230 00:D7BE: 82 15 00     	brl	L191
  3231                        L192:
  3232 00:D7C1: AD EA 7D     	lda	cip
  3233 00:D7C4: 85 01        	sta	<R0
  3234 00:D7C6: E2 20        	sep	#$20
  3235                        	longa	off
  3236 00:D7C8: A0 01 00     	ldy	#$1
  3237 00:D7CB: B1 01        	lda	(<R0),Y
  3238 00:D7CD: C9 14        	cmp	#<$14
  3239 00:D7CF: C2 20        	rep	#$20
  3240                        	longa	on
  3241 00:D7D1: D0 03        	bne	L193
  3242 00:D7D3: 82 0C 00     	brl	L10137
  3243                        L193:
  3244                        L191:
  3245 00:D7D6: E2 20        	sep	#$20
  3246                        	longa	off
  3247 00:D7D8: A9 11        	lda	#$11
  3248 00:D7DA: 8D E2 7F     	sta	err
  3249 00:D7DD: C2 20        	rep	#$20
  3250                        	longa	on
  3251 00:D7DF: 82 4F 00     	brl	L10125
  3252                        L10137:
  3253 00:D7E2: EE EA 7D     	inc	cip
  3254 00:D7E5: EE EA 7D     	inc	cip
  3255 00:D7E8: 20 AB D2     	jsr	getsize
  3256 00:D7EB: 85 0D        	sta	<L184+value_1
  3257 00:D7ED: 82 41 00     	brl	L10125
  3258                        L10138:
  3259 00:D7F0: E2 20        	sep	#$20
  3260                        	longa	off
  3261 00:D7F2: A9 14        	lda	#$14
  3262 00:D7F4: 8D E2 7F     	sta	err
  3263 00:D7F7: C2 20        	rep	#$20
  3264                        	longa	on
  3265 00:D7F9: 82 35 00     	brl	L10125
  3266                        
  3267                        ;enum{
  3268                        ;	 0:I_GOTO	1:I_GOSUB	2:I_RETURN	3:I_FOR		4:I_TO
  3269                        ;	 5:I_STEP	6:I_NEXT	7:I_IF		8:I_REM		9:I_STOP
  3270                        ;	10:I_INPUT	11:I_PRINT	12:I_LET	13:I_COMMA	14:I_SEMI
  3271                        ;	15:I_MINUS	16:I_PLUS	17:I_MUL	18:I_DIV	19:I_OPEN
  3272                        ;	20:I_CLOSE	21:I_GTE	22:I_SHARP	23:I_GT		24:I_EQ
  3273                        ;	25:I_LTE	26:I_LT		27:I_ARRAY	28:I_RND	29:I_ABS
  3274                        ;	30:I_SIZE	31:I_LIST	32:I_RUN	33:I_NEW	34:I_SYSTEM
  3275                        ;	35:I_NUM	36:I_VAR	37:I_STR	38:I_EOL
  3276                        ;};
  3277                        
  3278                        L10124:
  3279 00:D7FC: 20 13 C5     	jsr	fsw
  3280 00:D7FF: 0F 00        	dw	15					; 0/ 0
  3281 00:D801: 16 00        	dw	22					; 2/ 1
  3282 00:D803: EF D7        	dw	L10138-1	; default		; 4/ 2	 0/ 0
  3283 00:D805: E5 D6        	dw	L10128-1	; I_MINUS (15)		; 6/ 3	 2/ 1
  3284 00:D807: DA D6        	dw	L10127-1	; I_PLUS (16)		; 8/ 4	 4/ 2
  3285 00:D809: EF D7        	dw	L10138-1	; default		;10/ 5	 6/ 3
  3286 00:D80B: EF D7        	dw	L10138-1	; default		;12/ 6	 8/ 4
  3287 00:D80D: 1E D7        	dw	L10130-1	; I_OPEN (19)		;14/ 7	10/ 5
  3288 00:D80F: EF D7        	dw	L10138-1	; default		;16/ 8	12/ 6
  3289 00:D811: EF D7        	dw	L10138-1	; default		;18/ 9	14/ 7
  3290 00:D813: EF D7        	dw	L10138-1	; default		;20/10	16/ 8
  3291 00:D815: EF D7        	dw	L10138-1	; default		;22/11	18/ 9
  3292 00:D817: EF D7        	dw	L10138-1	; default		;24/12	20/10
  3293 00:D819: EF D7        	dw	L10138-1	; default		;26/13	22/11
  3294 00:D81B: EF D7        	dw	L10138-1	; default		;28/14	24/12
  3295 00:D81D: 26 D7        	dw	L10131-1	; I_ARRAY (27)		;30/15	26/13
  3296 00:D81F: 69 D7        	dw	L10133-1	; I_RND (28)		;32/16	28/14
  3297 00:D821: 86 D7        	dw	L10134-1	; I_ABS (29)		;34/17	30/15
  3298 00:D823: AB D7        	dw	L10136-1	; I_SIZE (30)		;36/18	32/16
  3299 00:D825: EF D7        	dw	L10138-1	; default		;38/19	34/17
  3300 00:D827: EF D7        	dw	L10138-1	; default		;40/20	36/18
  3301 00:D829: EF D7        	dw	L10138-1	; default		;42/21	38/19
  3302 00:D82B: EF D7        	dw	L10138-1	; default		;44/22	40/20
  3303 00:D82D: A5 D6        	dw	L10126-1	; I_NUM (35)		;46/23	42/21
  3304 00:D82F: F8 D6        	dw	L10129-1	; I_VAR (36)		;48/24	44/22
  3305                        L10125:
  3306 00:D831: A5 0D        	lda	<L184+value_1
  3307                        L194:
  3308 00:D833: A8           	tay
  3309 00:D834: 2B           	pld
  3310 00:D835: 3B           	tsc
  3311 00:D836: 18           	clc
  3312 00:D837: 69 0E 00     	adc	#L183
  3313 00:D83A: 1B           	tcs
  3314 00:D83B: 98           	tya
  3315 00:D83C: 60           	rts
  3316             0000000E   L183	equ	14
  3317             0000000D   L184	equ	13
  3318                        
  3319                        imul:
  3320                        	longa	on
  3321                        	longi	on
  3322 00:D83D: 3B           	tsc
  3323 00:D83E: 38           	sec
  3324 00:D83F: E9 08 00     	sbc	#L195
  3325 00:D842: 1B           	tcs
  3326 00:D843: 0B           	phd
  3327 00:D844: 5B           	tcd
  3328             00000000   value_1	set	0
  3329             00000002   tmp_1	set	2
  3330 00:D845: 20 91 D6     	jsr	ivalue
  3331 00:D848: 85 05        	sta	<L196+value_1
  3332 00:D84A: AD E2 7F     	lda	err
  3333 00:D84D: 29 FF 00     	and	#$ff
  3334 00:D850: D0 03        	bne	L197
  3335 00:D852: 82 0D 00     	brl	L10139
  3336                        L197:
  3337 00:D855: A9 FF FF     	lda	#$ffff
  3338                        L198:
  3339 00:D858: A8           	tay
  3340 00:D859: 2B           	pld
  3341 00:D85A: 3B           	tsc
  3342 00:D85B: 18           	clc
  3343 00:D85C: 69 08 00     	adc	#L195
  3344 00:D85F: 1B           	tcs
  3345 00:D860: 98           	tya
  3346 00:D861: 60           	rts
  3347                        L10139:
  3348                        L10140:
  3349 00:D862: AD EA 7D     	lda	cip
  3350 00:D865: 85 01        	sta	<R0
  3351 00:D867: B2 01        	lda	(<R0)
  3352 00:D869: 29 FF 00     	and	#$ff
  3353 00:D86C: 82 43 00     	brl	L10142
  3354                        L10144:
  3355 00:D86F: EE EA 7D     	inc	cip
  3356 00:D872: 20 91 D6     	jsr	ivalue
  3357 00:D875: 85 07        	sta	<L196+tmp_1
  3358 00:D877: A5 05        	lda	<L196+value_1
  3359 00:D879: A6 07        	ldx	<L196+tmp_1
  3360 00:D87B: 20 71 C4     	jsr	mul
  3361 00:D87E: 85 05        	sta	<L196+value_1
  3362 00:D880: 82 3E 00     	brl	L10143
  3363                        L10145:
  3364 00:D883: EE EA 7D     	inc	cip
  3365 00:D886: 20 91 D6     	jsr	ivalue
  3366 00:D889: 85 07        	sta	<L196+tmp_1
  3367 00:D88B: A5 07        	lda	<L196+tmp_1
  3368 00:D88D: F0 03        	beq	L199
  3369 00:D88F: 82 0F 00     	brl	L10146
  3370                        L199:
  3371 00:D892: E2 20        	sep	#$20
  3372                        	longa	off
  3373 00:D894: A9 01        	lda	#$1
  3374 00:D896: 8D E2 7F     	sta	err
  3375 00:D899: C2 20        	rep	#$20
  3376                        	longa	on
  3377 00:D89B: A9 FF FF     	lda	#$ffff
  3378 00:D89E: 82 B7 FF     	brl	L198
  3379                        L10146:
  3380 00:D8A1: A5 05        	lda	<L196+value_1
  3381 00:D8A3: A6 07        	ldx	<L196+tmp_1
  3382 00:D8A5: 20 99 C4     	jsr	div
  3383 00:D8A8: 85 05        	sta	<L196+value_1
  3384 00:D8AA: 82 14 00     	brl	L10143
  3385                        L10147:
  3386 00:D8AD: A5 05        	lda	<L196+value_1
  3387 00:D8AF: 82 A6 FF     	brl	L198
  3388                        L10142:
  3389 00:D8B2: 20 F7 C4     	jsr	swt
  3390 00:D8B5: 02 00        	dw	2
  3391 00:D8B7: 11 00        	dw	17
  3392 00:D8B9: 6E D8        	dw	L10144-1
  3393 00:D8BB: 12 00        	dw	18
  3394 00:D8BD: 82 D8        	dw	L10145-1
  3395 00:D8BF: AC D8        	dw	L10147-1
  3396                        L10143:
  3397 00:D8C1: 82 9E FF     	brl	L10140
  3398             00000008   L195	equ	8
  3399             00000005   L196	equ	5
  3400                        
  3401                        iplus:
  3402                        	longa	on
  3403                        	longi	on
  3404 00:D8C4: 3B           	tsc
  3405 00:D8C5: 38           	sec
  3406 00:D8C6: E9 08 00     	sbc	#L200
  3407 00:D8C9: 1B           	tcs
  3408 00:D8CA: 0B           	phd
  3409 00:D8CB: 5B           	tcd
  3410             00000000   value_1	set	0
  3411             00000002   tmp_1	set	2
  3412 00:D8CC: 20 3D D8     	jsr	imul
  3413 00:D8CF: 85 05        	sta	<L201+value_1
  3414 00:D8D1: AD E2 7F     	lda	err
  3415 00:D8D4: 29 FF 00     	and	#$ff
  3416 00:D8D7: D0 03        	bne	L202
  3417 00:D8D9: 82 0D 00     	brl	L10148
  3418                        L202:
  3419 00:D8DC: A9 FF FF     	lda	#$ffff
  3420                        L203:
  3421 00:D8DF: A8           	tay
  3422 00:D8E0: 2B           	pld
  3423 00:D8E1: 3B           	tsc
  3424 00:D8E2: 18           	clc
  3425 00:D8E3: 69 08 00     	adc	#L200
  3426 00:D8E6: 1B           	tcs
  3427 00:D8E7: 98           	tya
  3428 00:D8E8: 60           	rts
  3429                        L10148:
  3430                        L10149:
  3431 00:D8E9: AD EA 7D     	lda	cip
  3432 00:D8EC: 85 01        	sta	<R0
  3433 00:D8EE: B2 01        	lda	(<R0)
  3434 00:D8F0: 29 FF 00     	and	#$ff
  3435 00:D8F3: 82 29 00     	brl	L10151
  3436                        L10153:
  3437 00:D8F6: EE EA 7D     	inc	cip
  3438 00:D8F9: 20 3D D8     	jsr	imul
  3439 00:D8FC: 85 07        	sta	<L201+tmp_1
  3440 00:D8FE: 18           	clc
  3441 00:D8FF: A5 05        	lda	<L201+value_1
  3442 00:D901: 65 07        	adc	<L201+tmp_1
  3443 00:D903: 85 05        	sta	<L201+value_1
  3444 00:D905: 82 26 00     	brl	L10152
  3445                        L10154:
  3446 00:D908: EE EA 7D     	inc	cip
  3447 00:D90B: 20 3D D8     	jsr	imul
  3448 00:D90E: 85 07        	sta	<L201+tmp_1
  3449 00:D910: 38           	sec
  3450 00:D911: A5 05        	lda	<L201+value_1
  3451 00:D913: E5 07        	sbc	<L201+tmp_1
  3452 00:D915: 85 05        	sta	<L201+value_1
  3453 00:D917: 82 14 00     	brl	L10152
  3454                        L10155:
  3455 00:D91A: A5 05        	lda	<L201+value_1
  3456 00:D91C: 82 C0 FF     	brl	L203
  3457                        L10151:
  3458 00:D91F: 20 F7 C4     	jsr	swt
  3459 00:D922: 02 00        	dw	2
  3460 00:D924: 0F 00        	dw	15
  3461 00:D926: 07 D9        	dw	L10154-1
  3462 00:D928: 10 00        	dw	16
  3463 00:D92A: F5 D8        	dw	L10153-1
  3464 00:D92C: 19 D9        	dw	L10155-1
  3465                        L10152:
  3466 00:D92E: 82 B8 FF     	brl	L10149
  3467             00000008   L200	equ	8
  3468             00000005   L201	equ	5
  3469                        
  3470                        iexp:
  3471                        	longa	on
  3472                        	longi	on
  3473 00:D931: 3B           	tsc
  3474 00:D932: 38           	sec
  3475 00:D933: E9 08 00     	sbc	#L204
  3476 00:D936: 1B           	tcs
  3477 00:D937: 0B           	phd
  3478 00:D938: 5B           	tcd
  3479             00000000   value_1	set	0
  3480             00000002   tmp_1	set	2
  3481 00:D939: 20 C4 D8     	jsr	iplus
  3482 00:D93C: 85 05        	sta	<L205+value_1
  3483 00:D93E: AD E2 7F     	lda	err
  3484 00:D941: 29 FF 00     	and	#$ff
  3485 00:D944: D0 03        	bne	L206
  3486 00:D946: 82 0D 00     	brl	L10156
  3487                        L206:
  3488 00:D949: A9 FF FF     	lda	#$ffff
  3489                        L207:
  3490 00:D94C: A8           	tay
  3491 00:D94D: 2B           	pld
  3492 00:D94E: 3B           	tsc
  3493 00:D94F: 18           	clc
  3494 00:D950: 69 08 00     	adc	#L204
  3495 00:D953: 1B           	tcs
  3496 00:D954: 98           	tya
  3497 00:D955: 60           	rts
  3498                        L10156:
  3499                        L10157:
  3500 00:D956: AD EA 7D     	lda	cip
  3501 00:D959: 85 01        	sta	<R0
  3502 00:D95B: B2 01        	lda	(<R0)
  3503 00:D95D: 29 FF 00     	and	#$ff
  3504 00:D960: 82 C5 00     	brl	L10159
  3505                        L10161:
  3506 00:D963: EE EA 7D     	inc	cip
  3507 00:D966: 20 C4 D8     	jsr	iplus
  3508 00:D969: 85 07        	sta	<L205+tmp_1
  3509 00:D96B: 64 01        	stz	<R0
  3510 00:D96D: A5 05        	lda	<L205+value_1
  3511 00:D96F: C5 07        	cmp	<L205+tmp_1
  3512 00:D971: F0 03        	beq	L209
  3513 00:D973: 82 02 00     	brl	L208
  3514                        L209:
  3515 00:D976: E6 01        	inc	<R0
  3516                        L208:
  3517 00:D978: A5 01        	lda	<R0
  3518 00:D97A: 85 05        	sta	<L205+value_1
  3519 00:D97C: 82 BE 00     	brl	L10160
  3520                        L10162:
  3521 00:D97F: EE EA 7D     	inc	cip
  3522 00:D982: 20 C4 D8     	jsr	iplus
  3523 00:D985: 85 07        	sta	<L205+tmp_1
  3524 00:D987: 64 01        	stz	<R0
  3525 00:D989: A5 05        	lda	<L205+value_1
  3526 00:D98B: C5 07        	cmp	<L205+tmp_1
  3527 00:D98D: D0 03        	bne	L211
  3528 00:D98F: 82 02 00     	brl	L210
  3529                        L211:
  3530 00:D992: E6 01        	inc	<R0
  3531                        L210:
  3532 00:D994: A5 01        	lda	<R0
  3533 00:D996: 85 05        	sta	<L205+value_1
  3534 00:D998: 82 A2 00     	brl	L10160
  3535                        L10163:
  3536 00:D99B: EE EA 7D     	inc	cip
  3537 00:D99E: 20 C4 D8     	jsr	iplus
  3538 00:D9A1: 85 07        	sta	<L205+tmp_1
  3539 00:D9A3: 64 01        	stz	<R0
  3540 00:D9A5: 38           	sec
  3541 00:D9A6: A5 05        	lda	<L205+value_1
  3542 00:D9A8: E5 07        	sbc	<L205+tmp_1
  3543 00:D9AA: 70 03        	bvs	L213
  3544 00:D9AC: 49 00 80     	eor	#$8000
  3545                        L213:
  3546 00:D9AF: 10 03        	bpl	L214
  3547 00:D9B1: 82 02 00     	brl	L212
  3548                        L214:
  3549 00:D9B4: E6 01        	inc	<R0
  3550                        L212:
  3551 00:D9B6: A5 01        	lda	<R0
  3552 00:D9B8: 85 05        	sta	<L205+value_1
  3553 00:D9BA: 82 80 00     	brl	L10160
  3554                        L10164:
  3555 00:D9BD: EE EA 7D     	inc	cip
  3556 00:D9C0: 20 C4 D8     	jsr	iplus
  3557 00:D9C3: 85 07        	sta	<L205+tmp_1
  3558 00:D9C5: 64 01        	stz	<R0
  3559 00:D9C7: 38           	sec
  3560 00:D9C8: A5 07        	lda	<L205+tmp_1
  3561 00:D9CA: E5 05        	sbc	<L205+value_1
  3562 00:D9CC: 70 03        	bvs	L216
  3563 00:D9CE: 49 00 80     	eor	#$8000
  3564                        L216:
  3565 00:D9D1: 30 03        	bmi	L217
  3566 00:D9D3: 82 02 00     	brl	L215
  3567                        L217:
  3568 00:D9D6: E6 01        	inc	<R0
  3569                        L215:
  3570 00:D9D8: A5 01        	lda	<R0
  3571 00:D9DA: 85 05        	sta	<L205+value_1
  3572 00:D9DC: 82 5E 00     	brl	L10160
  3573                        L10165:
  3574 00:D9DF: EE EA 7D     	inc	cip
  3575 00:D9E2: 20 C4 D8     	jsr	iplus
  3576 00:D9E5: 85 07        	sta	<L205+tmp_1
  3577 00:D9E7: 64 01        	stz	<R0
  3578 00:D9E9: 38           	sec
  3579 00:D9EA: A5 07        	lda	<L205+tmp_1
  3580 00:D9EC: E5 05        	sbc	<L205+value_1
  3581 00:D9EE: 70 03        	bvs	L219
  3582 00:D9F0: 49 00 80     	eor	#$8000
  3583                        L219:
  3584 00:D9F3: 10 03        	bpl	L220
  3585 00:D9F5: 82 02 00     	brl	L218
  3586                        L220:
  3587 00:D9F8: E6 01        	inc	<R0
  3588                        L218:
  3589 00:D9FA: A5 01        	lda	<R0
  3590 00:D9FC: 85 05        	sta	<L205+value_1
  3591 00:D9FE: 82 3C 00     	brl	L10160
  3592                        L10166:
  3593 00:DA01: EE EA 7D     	inc	cip
  3594 00:DA04: 20 C4 D8     	jsr	iplus
  3595 00:DA07: 85 07        	sta	<L205+tmp_1
  3596 00:DA09: 64 01        	stz	<R0
  3597 00:DA0B: 38           	sec
  3598 00:DA0C: A5 05        	lda	<L205+value_1
  3599 00:DA0E: E5 07        	sbc	<L205+tmp_1
  3600 00:DA10: 70 03        	bvs	L222
  3601 00:DA12: 49 00 80     	eor	#$8000
  3602                        L222:
  3603 00:DA15: 30 03        	bmi	L223
  3604 00:DA17: 82 02 00     	brl	L221
  3605                        L223:
  3606 00:DA1A: E6 01        	inc	<R0
  3607                        L221:
  3608 00:DA1C: A5 01        	lda	<R0
  3609 00:DA1E: 85 05        	sta	<L205+value_1
  3610 00:DA20: 82 1A 00     	brl	L10160
  3611                        L10167:
  3612 00:DA23: A5 05        	lda	<L205+value_1
  3613 00:DA25: 82 24 FF     	brl	L207
  3614                        L10159:
  3615 00:DA28: 20 13 C5     	jsr	fsw
  3616 00:DA2B: 15 00        	dw	21
  3617 00:DA2D: 06 00        	dw	6
  3618 00:DA2F: 22 DA        	dw	L10167-1
  3619 00:DA31: 00 DA        	dw	L10166-1
  3620 00:DA33: 7E D9        	dw	L10162-1
  3621 00:DA35: DE D9        	dw	L10165-1
  3622 00:DA37: 62 D9        	dw	L10161-1
  3623 00:DA39: BC D9        	dw	L10164-1
  3624 00:DA3B: 9A D9        	dw	L10163-1
  3625                        L10160:
  3626 00:DA3D: 82 16 FF     	brl	L10157
  3627             00000008   L204	equ	8
  3628             00000005   L205	equ	5
  3629                        
  3630                        iprint:
  3631                        	longa	on
  3632                        	longi	on
  3633 00:DA40: 3B           	tsc
  3634 00:DA41: 38           	sec
  3635 00:DA42: E9 09 00     	sbc	#L224
  3636 00:DA45: 1B           	tcs
  3637 00:DA46: 0B           	phd
  3638 00:DA47: 5B           	tcd
  3639             00000000   value_1	set	0
  3640             00000002   len_1	set	2
  3641             00000004   i_1	set	4
  3642 00:DA48: 64 07        	stz	<L225+len_1
  3643                        L10168:
  3644 00:DA4A: AD EA 7D     	lda	cip
  3645 00:DA4D: 85 01        	sta	<R0
  3646 00:DA4F: E2 20        	sep	#$20
  3647                        	longa	off
  3648 00:DA51: B2 01        	lda	(<R0)
  3649 00:DA53: C9 0E        	cmp	#<$e
  3650 00:DA55: C2 20        	rep	#$20
  3651                        	longa	on
  3652 00:DA57: D0 03        	bne	L226
  3653 00:DA59: 82 1A 01     	brl	L10169
  3654                        L226:
  3655 00:DA5C: AD EA 7D     	lda	cip
  3656 00:DA5F: 85 01        	sta	<R0
  3657 00:DA61: E2 20        	sep	#$20
  3658                        	longa	off
  3659 00:DA63: B2 01        	lda	(<R0)
  3660 00:DA65: C9 26        	cmp	#<$26
  3661 00:DA67: C2 20        	rep	#$20
  3662                        	longa	on
  3663 00:DA69: D0 03        	bne	L227
  3664 00:DA6B: 82 08 01     	brl	L10169
  3665                        L227:
  3666 00:DA6E: AD EA 7D     	lda	cip
  3667 00:DA71: 85 01        	sta	<R0
  3668 00:DA73: B2 01        	lda	(<R0)
  3669 00:DA75: 29 FF 00     	and	#$ff
  3670 00:DA78: 82 7A 00     	brl	L10170
  3671                        L10172:
  3672 00:DA7B: EE EA 7D     	inc	cip
  3673 00:DA7E: AD EA 7D     	lda	cip
  3674 00:DA81: 85 01        	sta	<R0
  3675 00:DA83: E2 20        	sep	#$20
  3676                        	longa	off
  3677 00:DA85: B2 01        	lda	(<R0)
  3678 00:DA87: 85 09        	sta	<L225+i_1
  3679 00:DA89: C2 20        	rep	#$20
  3680                        	longa	on
  3681 00:DA8B: EE EA 7D     	inc	cip
  3682                        L10173:
  3683 00:DA8E: E2 20        	sep	#$20
  3684                        	longa	off
  3685 00:DA90: A5 09        	lda	<L225+i_1
  3686 00:DA92: 85 01        	sta	<R0
  3687 00:DA94: C2 20        	rep	#$20
  3688                        	longa	on
  3689 00:DA96: E2 20        	sep	#$20
  3690                        	longa	off
  3691 00:DA98: C6 09        	dec	<L225+i_1
  3692 00:DA9A: C2 20        	rep	#$20
  3693                        	longa	on
  3694 00:DA9C: A5 01        	lda	<R0
  3695 00:DA9E: 29 FF 00     	and	#$ff
  3696 00:DAA1: D0 03        	bne	L228
  3697 00:DAA3: 82 11 00     	brl	L10174
  3698                        L228:
  3699 00:DAA6: AD EA 7D     	lda	cip
  3700 00:DAA9: 85 01        	sta	<R0
  3701 00:DAAB: EE EA 7D     	inc	cip
  3702 00:DAAE: B2 01        	lda	(<R0)
  3703 00:DAB0: 48           	pha
  3704 00:DAB1: 20 26 C4     	jsr	c_putch
  3705 00:DAB4: 82 D7 FF     	brl	L10173
  3706                        L10174:
  3707 00:DAB7: 82 4A 00     	brl	L10171
  3708                        L10175:
  3709 00:DABA: EE EA 7D     	inc	cip
  3710 00:DABD: 20 31 D9     	jsr	iexp
  3711 00:DAC0: 85 07        	sta	<L225+len_1
  3712 00:DAC2: AD E2 7F     	lda	err
  3713 00:DAC5: 29 FF 00     	and	#$ff
  3714 00:DAC8: D0 03        	bne	L229
  3715 00:DACA: 82 08 00     	brl	L10176
  3716                        L229:
  3717                        L230:
  3718 00:DACD: 2B           	pld
  3719 00:DACE: 3B           	tsc
  3720 00:DACF: 18           	clc
  3721 00:DAD0: 69 09 00     	adc	#L224
  3722 00:DAD3: 1B           	tcs
  3723 00:DAD4: 60           	rts
  3724                        L10176:
  3725 00:DAD5: 82 2C 00     	brl	L10171
  3726                        L10177:
  3727 00:DAD8: 20 31 D9     	jsr	iexp
  3728 00:DADB: 85 05        	sta	<L225+value_1
  3729 00:DADD: AD E2 7F     	lda	err
  3730 00:DAE0: 29 FF 00     	and	#$ff
  3731 00:DAE3: D0 03        	bne	L231
  3732 00:DAE5: 82 03 00     	brl	L10178
  3733                        L231:
  3734 00:DAE8: 82 E2 FF     	brl	L230
  3735                        L10178:
  3736 00:DAEB: D4 07        	pei	<L225+len_1
  3737 00:DAED: D4 05        	pei	<L225+value_1
  3738 00:DAEF: 20 3F CB     	jsr	putnum
  3739 00:DAF2: 82 0F 00     	brl	L10171
  3740                        L10170:
  3741 00:DAF5: 20 F7 C4     	jsr	swt
  3742 00:DAF8: 02 00        	dw	2
  3743 00:DAFA: 16 00        	dw	22
  3744 00:DAFC: B9 DA        	dw	L10175-1
  3745 00:DAFE: 25 00        	dw	37
  3746 00:DB00: 7A DA        	dw	L10172-1
  3747 00:DB02: D7 DA        	dw	L10177-1
  3748                        L10171:
  3749 00:DB04: AD EA 7D     	lda	cip
  3750 00:DB07: 85 01        	sta	<R0
  3751 00:DB09: E2 20        	sep	#$20
  3752                        	longa	off
  3753 00:DB0B: B2 01        	lda	(<R0)
  3754 00:DB0D: C9 0D        	cmp	#<$d
  3755 00:DB0F: C2 20        	rep	#$20
  3756                        	longa	on
  3757 00:DB11: F0 03        	beq	L232
  3758 00:DB13: 82 2D 00     	brl	L10179
  3759                        L232:
  3760 00:DB16: EE EA 7D     	inc	cip
  3761 00:DB19: AD EA 7D     	lda	cip
  3762 00:DB1C: 85 01        	sta	<R0
  3763 00:DB1E: E2 20        	sep	#$20
  3764                        	longa	off
  3765 00:DB20: B2 01        	lda	(<R0)
  3766 00:DB22: C9 0E        	cmp	#<$e
  3767 00:DB24: C2 20        	rep	#$20
  3768                        	longa	on
  3769 00:DB26: D0 03        	bne	L234
  3770 00:DB28: 82 12 00     	brl	L233
  3771                        L234:
  3772 00:DB2B: AD EA 7D     	lda	cip
  3773 00:DB2E: 85 01        	sta	<R0
  3774 00:DB30: E2 20        	sep	#$20
  3775                        	longa	off
  3776 00:DB32: B2 01        	lda	(<R0)
  3777 00:DB34: C9 26        	cmp	#<$26
  3778 00:DB36: C2 20        	rep	#$20
  3779                        	longa	on
  3780 00:DB38: F0 03        	beq	L235
  3781 00:DB3A: 82 03 00     	brl	L10180
  3782                        L235:
  3783                        L233:
  3784 00:DB3D: 82 8D FF     	brl	L230
  3785                        L10180:
  3786 00:DB40: 82 30 00     	brl	L10181
  3787                        L10179:
  3788 00:DB43: AD EA 7D     	lda	cip
  3789 00:DB46: 85 01        	sta	<R0
  3790 00:DB48: E2 20        	sep	#$20
  3791                        	longa	off
  3792 00:DB4A: B2 01        	lda	(<R0)
  3793 00:DB4C: C9 0E        	cmp	#<$e
  3794 00:DB4E: C2 20        	rep	#$20
  3795                        	longa	on
  3796 00:DB50: D0 03        	bne	L236
  3797 00:DB52: 82 1E 00     	brl	L10182
  3798                        L236:
  3799 00:DB55: AD EA 7D     	lda	cip
  3800 00:DB58: 85 01        	sta	<R0
  3801 00:DB5A: E2 20        	sep	#$20
  3802                        	longa	off
  3803 00:DB5C: B2 01        	lda	(<R0)
  3804 00:DB5E: C9 26        	cmp	#<$26
  3805 00:DB60: C2 20        	rep	#$20
  3806                        	longa	on
  3807 00:DB62: D0 03        	bne	L237
  3808 00:DB64: 82 0C 00     	brl	L10182
  3809                        L237:
  3810 00:DB67: E2 20        	sep	#$20
  3811                        	longa	off
  3812 00:DB69: A9 14        	lda	#$14
  3813 00:DB6B: 8D E2 7F     	sta	err
  3814 00:DB6E: C2 20        	rep	#$20
  3815                        	longa	on
  3816 00:DB70: 82 5A FF     	brl	L230
  3817                        L10182:
  3818                        L10181:
  3819 00:DB73: 82 D4 FE     	brl	L10168
  3820                        L10169:
  3821 00:DB76: 20 6E C5     	jsr	newline
  3822 00:DB79: 82 51 FF     	brl	L230
  3823             00000009   L224	equ	9
  3824             00000005   L225	equ	5
  3825                        
  3826                        iinput:
  3827                        	longa	on
  3828                        	longi	on
  3829 00:DB7C: 3B           	tsc
  3830 00:DB7D: 38           	sec
  3831 00:DB7E: E9 0E 00     	sbc	#L238
  3832 00:DB81: 1B           	tcs
  3833 00:DB82: 0B           	phd
  3834 00:DB83: 5B           	tcd
  3835             00000000   value_1	set	0
  3836             00000002   index_1	set	2
  3837             00000004   i_1	set	4
  3838             00000005   prompt_1	set	5
  3839                        L10183:
  3840 00:DB84: E2 20        	sep	#$20
  3841                        	longa	off
  3842 00:DB86: A9 01        	lda	#$1
  3843 00:DB88: 85 0E        	sta	<L239+prompt_1
  3844 00:DB8A: C2 20        	rep	#$20
  3845                        	longa	on
  3846 00:DB8C: AD EA 7D     	lda	cip
  3847 00:DB8F: 85 01        	sta	<R0
  3848 00:DB91: E2 20        	sep	#$20
  3849                        	longa	off
  3850 00:DB93: B2 01        	lda	(<R0)
  3851 00:DB95: C9 25        	cmp	#<$25
  3852 00:DB97: C2 20        	rep	#$20
  3853                        	longa	on
  3854 00:DB99: F0 03        	beq	L240
  3855 00:DB9B: 82 42 00     	brl	L10185
  3856                        L240:
  3857 00:DB9E: EE EA 7D     	inc	cip
  3858 00:DBA1: AD EA 7D     	lda	cip
  3859 00:DBA4: 85 01        	sta	<R0
  3860 00:DBA6: E2 20        	sep	#$20
  3861                        	longa	off
  3862 00:DBA8: B2 01        	lda	(<R0)
  3863 00:DBAA: 85 0D        	sta	<L239+i_1
  3864 00:DBAC: C2 20        	rep	#$20
  3865                        	longa	on
  3866 00:DBAE: EE EA 7D     	inc	cip
  3867                        L10186:
  3868 00:DBB1: E2 20        	sep	#$20
  3869                        	longa	off
  3870 00:DBB3: A5 0D        	lda	<L239+i_1
  3871 00:DBB5: 85 01        	sta	<R0
  3872 00:DBB7: C2 20        	rep	#$20
  3873                        	longa	on
  3874 00:DBB9: E2 20        	sep	#$20
  3875                        	longa	off
  3876 00:DBBB: C6 0D        	dec	<L239+i_1
  3877 00:DBBD: C2 20        	rep	#$20
  3878                        	longa	on
  3879 00:DBBF: A5 01        	lda	<R0
  3880 00:DBC1: 29 FF 00     	and	#$ff
  3881 00:DBC4: D0 03        	bne	L241
  3882 00:DBC6: 82 11 00     	brl	L10187
  3883                        L241:
  3884 00:DBC9: AD EA 7D     	lda	cip
  3885 00:DBCC: 85 01        	sta	<R0
  3886 00:DBCE: EE EA 7D     	inc	cip
  3887 00:DBD1: B2 01        	lda	(<R0)
  3888 00:DBD3: 48           	pha
  3889 00:DBD4: 20 26 C4     	jsr	c_putch
  3890 00:DBD7: 82 D7 FF     	brl	L10186
  3891                        L10187:
  3892 00:DBDA: E2 20        	sep	#$20
  3893                        	longa	off
  3894 00:DBDC: 64 0E        	stz	<L239+prompt_1
  3895 00:DBDE: C2 20        	rep	#$20
  3896                        	longa	on
  3897                        L10185:
  3898 00:DBE0: AD EA 7D     	lda	cip
  3899 00:DBE3: 85 01        	sta	<R0
  3900 00:DBE5: B2 01        	lda	(<R0)
  3901 00:DBE7: 29 FF 00     	and	#$ff
  3902 00:DBEA: 82 E7 00     	brl	L10188
  3903                        L10190:
  3904 00:DBED: EE EA 7D     	inc	cip
  3905 00:DBF0: A5 0E        	lda	<L239+prompt_1
  3906 00:DBF2: 29 FF 00     	and	#$ff
  3907 00:DBF5: D0 03        	bne	L242
  3908 00:DBF7: 82 1C 00     	brl	L10191
  3909                        L242:
  3910 00:DBFA: AD EA 7D     	lda	cip
  3911 00:DBFD: 85 01        	sta	<R0
  3912 00:DBFF: B2 01        	lda	(<R0)
  3913 00:DC01: 29 FF 00     	and	#$ff
  3914 00:DC04: 85 01        	sta	<R0
  3915 00:DC06: 18           	clc
  3916 00:DC07: A9 41 00     	lda	#$41
  3917 00:DC0A: 65 01        	adc	<R0
  3918 00:DC0C: 48           	pha
  3919 00:DC0D: 20 26 C4     	jsr	c_putch
  3920 00:DC10: F4 3A 00     	pea	#<$3a
  3921 00:DC13: 20 26 C4     	jsr	c_putch
  3922                        L10191:
  3923 00:DC16: 20 21 CC     	jsr	getnum
  3924 00:DC19: 85 09        	sta	<L239+value_1
  3925 00:DC1B: AD E2 7F     	lda	err
  3926 00:DC1E: 29 FF 00     	and	#$ff
  3927 00:DC21: D0 03        	bne	L243
  3928 00:DC23: 82 08 00     	brl	L10192
  3929                        L243:
  3930                        L244:
  3931 00:DC26: 2B           	pld
  3932 00:DC27: 3B           	tsc
  3933 00:DC28: 18           	clc
  3934 00:DC29: 69 0E 00     	adc	#L238
  3935 00:DC2C: 1B           	tcs
  3936 00:DC2D: 60           	rts
  3937                        L10192:
  3938 00:DC2E: AD EA 7D     	lda	cip
  3939 00:DC31: 85 05        	sta	<R1
  3940 00:DC33: B2 05        	lda	(<R1)
  3941 00:DC35: 29 FF 00     	and	#$ff
  3942 00:DC38: 85 05        	sta	<R1
  3943 00:DC3A: A5 05        	lda	<R1
  3944 00:DC3C: 0A           	asl	A
  3945 00:DC3D: 85 01        	sta	<R0
  3946 00:DC3F: 18           	clc
  3947 00:DC40: A9 6E 7E     	lda	#<var
  3948 00:DC43: 65 01        	adc	<R0
  3949 00:DC45: 85 05        	sta	<R1
  3950 00:DC47: A5 09        	lda	<L239+value_1
  3951 00:DC49: 92 05        	sta	(<R1)
  3952 00:DC4B: EE EA 7D     	inc	cip
  3953 00:DC4E: 82 92 00     	brl	L10189
  3954                        L10193:
  3955 00:DC51: EE EA 7D     	inc	cip
  3956 00:DC54: 20 1F D6     	jsr	getparam
  3957 00:DC57: 85 0B        	sta	<L239+index_1
  3958 00:DC59: AD E2 7F     	lda	err
  3959 00:DC5C: 29 FF 00     	and	#$ff
  3960 00:DC5F: D0 03        	bne	L245
  3961 00:DC61: 82 03 00     	brl	L10194
  3962                        L245:
  3963 00:DC64: 82 BF FF     	brl	L244
  3964                        L10194:
  3965 00:DC67: 38           	sec
  3966 00:DC68: A5 0B        	lda	<L239+index_1
  3967 00:DC6A: E9 40 00     	sbc	#<$40
  3968 00:DC6D: 70 03        	bvs	L246
  3969 00:DC6F: 49 00 80     	eor	#$8000
  3970                        L246:
  3971 00:DC72: 30 03        	bmi	L247
  3972 00:DC74: 82 0C 00     	brl	L10195
  3973                        L247:
  3974 00:DC77: E2 20        	sep	#$20
  3975                        	longa	off
  3976 00:DC79: A9 03        	lda	#$3
  3977 00:DC7B: 8D E2 7F     	sta	err
  3978 00:DC7E: C2 20        	rep	#$20
  3979                        	longa	on
  3980 00:DC80: 82 A3 FF     	brl	L244
  3981                        L10195:
  3982 00:DC83: A5 0E        	lda	<L239+prompt_1
  3983 00:DC85: 29 FF 00     	and	#$ff
  3984 00:DC88: D0 03        	bne	L248
  3985 00:DC8A: 82 14 00     	brl	L10196
  3986                        L248:
  3987 00:DC8D: F4 1B DD     	pea	#<L17
  3988 00:DC90: 20 FA C9     	jsr	c_puts
  3989 00:DC93: F4 00 00     	pea	#<$0
  3990 00:DC96: D4 0B        	pei	<L239+index_1
  3991 00:DC98: 20 3F CB     	jsr	putnum
  3992 00:DC9B: F4 1E DD     	pea	#<L17+3
  3993 00:DC9E: 20 FA C9     	jsr	c_puts
  3994                        L10196:
  3995 00:DCA1: 20 21 CC     	jsr	getnum
  3996 00:DCA4: 85 09        	sta	<L239+value_1
  3997 00:DCA6: AD E2 7F     	lda	err
  3998 00:DCA9: 29 FF 00     	and	#$ff
  3999 00:DCAC: D0 03        	bne	L249
  4000 00:DCAE: 82 03 00     	brl	L10197
  4001                        L249:
  4002 00:DCB1: 82 72 FF     	brl	L244
  4003                        L10197:
  4004 00:DCB4: A5 0B        	lda	<L239+index_1
  4005 00:DCB6: 0A           	asl	A
  4006 00:DCB7: 85 01        	sta	<R0
  4007 00:DCB9: 18           	clc
  4008 00:DCBA: A9 EE 7D     	lda	#<arr
  4009 00:DCBD: 65 01        	adc	<R0
  4010 00:DCBF: 85 05        	sta	<R1
  4011 00:DCC1: A5 09        	lda	<L239+value_1
  4012 00:DCC3: 92 05        	sta	(<R1)
  4013 00:DCC5: 82 1B 00     	brl	L10189
  4014                        L10198:
  4015 00:DCC8: E2 20        	sep	#$20
  4016                        	longa	off
  4017 00:DCCA: A9 14        	lda	#$14
  4018 00:DCCC: 8D E2 7F     	sta	err
  4019 00:DCCF: C2 20        	rep	#$20
  4020                        	longa	on
  4021 00:DCD1: 82 52 FF     	brl	L244
  4022                        L10188:
  4023 00:DCD4: 20 F7 C4     	jsr	swt
  4024 00:DCD7: 02 00        	dw	2
  4025 00:DCD9: 1B 00        	dw	27
  4026 00:DCDB: 50 DC        	dw	L10193-1
  4027 00:DCDD: 24 00        	dw	36
  4028 00:DCDF: EC DB        	dw	L10190-1
  4029 00:DCE1: C7 DC        	dw	L10198-1
  4030                        L10189:
  4031 00:DCE3: AD EA 7D     	lda	cip
  4032 00:DCE6: 85 01        	sta	<R0
  4033 00:DCE8: B2 01        	lda	(<R0)
  4034 00:DCEA: 29 FF 00     	and	#$ff
  4035 00:DCED: 82 15 00     	brl	L10199
  4036                        L10201:
  4037 00:DCF0: EE EA 7D     	inc	cip
  4038 00:DCF3: 82 22 00     	brl	L10200
  4039                        L10202:
  4040                        L10203:
  4041 00:DCF6: 82 2D FF     	brl	L244
  4042                        L10204:
  4043 00:DCF9: E2 20        	sep	#$20
  4044                        	longa	off
  4045 00:DCFB: A9 14        	lda	#$14
  4046 00:DCFD: 8D E2 7F     	sta	err
  4047 00:DD00: C2 20        	rep	#$20
  4048                        	longa	on
  4049 00:DD02: 82 21 FF     	brl	L244
  4050                        L10199:
  4051 00:DD05: 20 F7 C4     	jsr	swt
  4052 00:DD08: 03 00        	dw	3
  4053 00:DD0A: 0D 00        	dw	13
  4054 00:DD0C: EF DC        	dw	L10201-1
  4055 00:DD0E: 0E 00        	dw	14
  4056 00:DD10: F5 DC        	dw	L10202-1
  4057 00:DD12: 26 00        	dw	38
  4058 00:DD14: F5 DC        	dw	L10203-1
  4059 00:DD16: F8 DC        	dw	L10204-1
  4060                        L10200:
  4061 00:DD18: 82 69 FE     	brl	L10183
  4062             0000000E   L238	equ	14
  4063             00000009   L239	equ	9
  4064                        
  4065                        L17:
  4066 00:DD1B: 40 28 00 29  	db	$40,$28,$00,$29,$3A,$00
       00:DD1F: 3A 00 
  4067                        
  4068                        ivar:
  4069                        	longa	on
  4070                        	longi	on
  4071 00:DD21: 3B           	tsc
  4072 00:DD22: 38           	sec
  4073 00:DD23: E9 0C 00     	sbc	#L251
  4074 00:DD26: 1B           	tcs
  4075 00:DD27: 0B           	phd
  4076 00:DD28: 5B           	tcd
  4077             00000000   value_1	set	0
  4078             00000002   index_1	set	2
  4079 00:DD29: AD EA 7D     	lda	cip
  4080 00:DD2C: 85 01        	sta	<R0
  4081 00:DD2E: B2 01        	lda	(<R0)
  4082 00:DD30: 29 FF 00     	and	#$ff
  4083 00:DD33: 85 0B        	sta	<L252+index_1
  4084 00:DD35: EE EA 7D     	inc	cip
  4085 00:DD38: AD EA 7D     	lda	cip
  4086 00:DD3B: 85 01        	sta	<R0
  4087 00:DD3D: E2 20        	sep	#$20
  4088                        	longa	off
  4089 00:DD3F: B2 01        	lda	(<R0)
  4090 00:DD41: C9 18        	cmp	#<$18
  4091 00:DD43: C2 20        	rep	#$20
  4092                        	longa	on
  4093 00:DD45: D0 03        	bne	L253
  4094 00:DD47: 82 11 00     	brl	L10205
  4095                        L253:
  4096 00:DD4A: E2 20        	sep	#$20
  4097                        	longa	off
  4098 00:DD4C: A9 12        	lda	#$12
  4099 00:DD4E: 8D E2 7F     	sta	err
  4100 00:DD51: C2 20        	rep	#$20
  4101                        	longa	on
  4102                        L254:
  4103 00:DD53: 2B           	pld
  4104 00:DD54: 3B           	tsc
  4105 00:DD55: 18           	clc
  4106 00:DD56: 69 0C 00     	adc	#L251
  4107 00:DD59: 1B           	tcs
  4108 00:DD5A: 60           	rts
  4109                        L10205:
  4110 00:DD5B: EE EA 7D     	inc	cip
  4111 00:DD5E: 20 31 D9     	jsr	iexp
  4112 00:DD61: 85 09        	sta	<L252+value_1
  4113 00:DD63: AD E2 7F     	lda	err
  4114 00:DD66: 29 FF 00     	and	#$ff
  4115 00:DD69: D0 03        	bne	L255
  4116 00:DD6B: 82 03 00     	brl	L10206
  4117                        L255:
  4118 00:DD6E: 82 E2 FF     	brl	L254
  4119                        L10206:
  4120 00:DD71: A5 0B        	lda	<L252+index_1
  4121 00:DD73: 0A           	asl	A
  4122 00:DD74: 85 01        	sta	<R0
  4123 00:DD76: 18           	clc
  4124 00:DD77: A9 6E 7E     	lda	#<var
  4125 00:DD7A: 65 01        	adc	<R0
  4126 00:DD7C: 85 05        	sta	<R1
  4127 00:DD7E: A5 09        	lda	<L252+value_1
  4128 00:DD80: 92 05        	sta	(<R1)
  4129 00:DD82: 82 CE FF     	brl	L254
  4130             0000000C   L251	equ	12
  4131             00000009   L252	equ	9
  4132                        
  4133                        iarray:
  4134                        	longa	on
  4135                        	longi	on
  4136 00:DD85: 3B           	tsc
  4137 00:DD86: 38           	sec
  4138 00:DD87: E9 0C 00     	sbc	#L256
  4139 00:DD8A: 1B           	tcs
  4140 00:DD8B: 0B           	phd
  4141 00:DD8C: 5B           	tcd
  4142             00000000   value_1	set	0
  4143             00000002   index_1	set	2
  4144 00:DD8D: 20 1F D6     	jsr	getparam
  4145 00:DD90: 85 0B        	sta	<L257+index_1
  4146 00:DD92: AD E2 7F     	lda	err
  4147 00:DD95: 29 FF 00     	and	#$ff
  4148 00:DD98: D0 03        	bne	L258
  4149 00:DD9A: 82 08 00     	brl	L10207
  4150                        L258:
  4151                        L259:
  4152 00:DD9D: 2B           	pld
  4153 00:DD9E: 3B           	tsc
  4154 00:DD9F: 18           	clc
  4155 00:DDA0: 69 0C 00     	adc	#L256
  4156 00:DDA3: 1B           	tcs
  4157 00:DDA4: 60           	rts
  4158                        L10207:
  4159 00:DDA5: 38           	sec
  4160 00:DDA6: A5 0B        	lda	<L257+index_1
  4161 00:DDA8: E9 40 00     	sbc	#<$40
  4162 00:DDAB: 70 03        	bvs	L260
  4163 00:DDAD: 49 00 80     	eor	#$8000
  4164                        L260:
  4165 00:DDB0: 30 03        	bmi	L261
  4166 00:DDB2: 82 0C 00     	brl	L10208
  4167                        L261:
  4168 00:DDB5: E2 20        	sep	#$20
  4169                        	longa	off
  4170 00:DDB7: A9 03        	lda	#$3
  4171 00:DDB9: 8D E2 7F     	sta	err
  4172 00:DDBC: C2 20        	rep	#$20
  4173                        	longa	on
  4174 00:DDBE: 82 DC FF     	brl	L259
  4175                        L10208:
  4176 00:DDC1: AD EA 7D     	lda	cip
  4177 00:DDC4: 85 01        	sta	<R0
  4178 00:DDC6: E2 20        	sep	#$20
  4179                        	longa	off
  4180 00:DDC8: B2 01        	lda	(<R0)
  4181 00:DDCA: C9 18        	cmp	#<$18
  4182 00:DDCC: C2 20        	rep	#$20
  4183                        	longa	on
  4184 00:DDCE: D0 03        	bne	L262
  4185 00:DDD0: 82 0C 00     	brl	L10209
  4186                        L262:
  4187 00:DDD3: E2 20        	sep	#$20
  4188                        	longa	off
  4189 00:DDD5: A9 12        	lda	#$12
  4190 00:DDD7: 8D E2 7F     	sta	err
  4191 00:DDDA: C2 20        	rep	#$20
  4192                        	longa	on
  4193 00:DDDC: 82 BE FF     	brl	L259
  4194                        L10209:
  4195 00:DDDF: EE EA 7D     	inc	cip
  4196 00:DDE2: 20 31 D9     	jsr	iexp
  4197 00:DDE5: 85 09        	sta	<L257+value_1
  4198 00:DDE7: AD E2 7F     	lda	err
  4199 00:DDEA: 29 FF 00     	and	#$ff
  4200 00:DDED: D0 03        	bne	L263
  4201 00:DDEF: 82 03 00     	brl	L10210
  4202                        L263:
  4203 00:DDF2: 82 A8 FF     	brl	L259
  4204                        L10210:
  4205 00:DDF5: A5 0B        	lda	<L257+index_1
  4206 00:DDF7: 0A           	asl	A
  4207 00:DDF8: 85 01        	sta	<R0
  4208 00:DDFA: 18           	clc
  4209 00:DDFB: A9 EE 7D     	lda	#<arr
  4210 00:DDFE: 65 01        	adc	<R0
  4211 00:DE00: 85 05        	sta	<R1
  4212 00:DE02: A5 09        	lda	<L257+value_1
  4213 00:DE04: 92 05        	sta	(<R1)
  4214 00:DE06: 82 94 FF     	brl	L259
  4215             0000000C   L256	equ	12
  4216             00000009   L257	equ	9
  4217                        
  4218                        ilet:
  4219                        	longa	on
  4220                        	longi	on
  4221 00:DE09: 3B           	tsc
  4222 00:DE0A: 38           	sec
  4223 00:DE0B: E9 04 00     	sbc	#L264
  4224 00:DE0E: 1B           	tcs
  4225 00:DE0F: 0B           	phd
  4226 00:DE10: 5B           	tcd
  4227 00:DE11: AD EA 7D     	lda	cip
  4228 00:DE14: 85 01        	sta	<R0
  4229 00:DE16: B2 01        	lda	(<R0)
  4230 00:DE18: 29 FF 00     	and	#$ff
  4231 00:DE1B: 82 1E 00     	brl	L10211
  4232                        L10213:
  4233 00:DE1E: EE EA 7D     	inc	cip
  4234 00:DE21: 20 21 DD     	jsr	ivar
  4235 00:DE24: 82 24 00     	brl	L10212
  4236                        L10214:
  4237 00:DE27: EE EA 7D     	inc	cip
  4238 00:DE2A: 20 85 DD     	jsr	iarray
  4239 00:DE2D: 82 1B 00     	brl	L10212
  4240                        L10215:
  4241 00:DE30: E2 20        	sep	#$20
  4242                        	longa	off
  4243 00:DE32: A9 0E        	lda	#$e
  4244 00:DE34: 8D E2 7F     	sta	err
  4245 00:DE37: C2 20        	rep	#$20
  4246                        	longa	on
  4247 00:DE39: 82 0F 00     	brl	L10212
  4248                        L10211:
  4249 00:DE3C: 20 F7 C4     	jsr	swt
  4250 00:DE3F: 02 00        	dw	2
  4251 00:DE41: 1B 00        	dw	27
  4252 00:DE43: 26 DE        	dw	L10214-1
  4253 00:DE45: 24 00        	dw	36
  4254 00:DE47: 1D DE        	dw	L10213-1
  4255 00:DE49: 2F DE        	dw	L10215-1
  4256                        L10212:
  4257                        L266:
  4258 00:DE4B: 2B           	pld
  4259 00:DE4C: 3B           	tsc
  4260 00:DE4D: 18           	clc
  4261 00:DE4E: 69 04 00     	adc	#L264
  4262 00:DE51: 1B           	tcs
  4263 00:DE52: 60           	rts
  4264             00000004   L264	equ	4
  4265             00000005   L265	equ	5
  4266                        
  4267                        iexe:
  4268                        	longa	on
  4269                        	longi	on
  4270 00:DE53: 3B           	tsc
  4271 00:DE54: 38           	sec
  4272 00:DE55: E9 18 00     	sbc	#L267
  4273 00:DE58: 1B           	tcs
  4274 00:DE59: 0B           	phd
  4275 00:DE5A: 5B           	tcd
  4276             00000000   lineno_1	set	0
  4277             00000002   lp_1	set	2
  4278             00000004   index_1	set	4
  4279             00000006   vto_1	set	6
  4280             00000008   vstep_1	set	8
  4281             0000000A   condition_1	set	10
  4282                        L10216:
  4283 00:DE5B: AD EA 7D     	lda	cip
  4284 00:DE5E: 85 01        	sta	<R0
  4285 00:DE60: E2 20        	sep	#$20
  4286                        	longa	off
  4287 00:DE62: B2 01        	lda	(<R0)
  4288 00:DE64: C9 26        	cmp	#<$26
  4289 00:DE66: C2 20        	rep	#$20
  4290                        	longa	on
  4291 00:DE68: D0 03        	bne	L269
  4292 00:DE6A: 82 1C 06     	brl	L10217
  4293                        L269:
  4294 00:DE6D: 20 23 C4     	jsr	c_kbhit
  4295 00:DE70: 29 FF 00     	and	#$ff
  4296 00:DE73: D0 03        	bne	L270
  4297 00:DE75: 82 2C 00     	brl	L10218
  4298                        L270:
  4299 00:DE78: 20 20 C4     	jsr	c_getch
  4300 00:DE7B: E2 20        	sep	#$20
  4301                        	longa	off
  4302 00:DE7D: 85 01        	sta	<R0
  4303 00:DE7F: C2 20        	rep	#$20
  4304                        	longa	on
  4305 00:DE81: E2 20        	sep	#$20
  4306                        	longa	off
  4307 00:DE83: A5 01        	lda	<R0
  4308 00:DE85: C9 1B        	cmp	#<$1b
  4309 00:DE87: C2 20        	rep	#$20
  4310                        	longa	on
  4311 00:DE89: F0 03        	beq	L271
  4312 00:DE8B: 82 16 00     	brl	L10219
  4313                        L271:
  4314 00:DE8E: E2 20        	sep	#$20
  4315                        	longa	off
  4316 00:DE90: A9 16        	lda	#$16
  4317 00:DE92: 8D E2 7F     	sta	err
  4318 00:DE95: C2 20        	rep	#$20
  4319                        	longa	on
  4320 00:DE97: A9 00 00     	lda	#$0
  4321                        L272:
  4322 00:DE9A: A8           	tay
  4323 00:DE9B: 2B           	pld
  4324 00:DE9C: 3B           	tsc
  4325 00:DE9D: 18           	clc
  4326 00:DE9E: 69 18 00     	adc	#L267
  4327 00:DEA1: 1B           	tcs
  4328 00:DEA2: 98           	tya
  4329 00:DEA3: 60           	rts
  4330                        L10219:
  4331                        L10218:
  4332 00:DEA4: AD EA 7D     	lda	cip
  4333 00:DEA7: 85 01        	sta	<R0
  4334 00:DEA9: B2 01        	lda	(<R0)
  4335 00:DEAB: 29 FF 00     	and	#$ff
  4336 00:DEAE: 82 71 05     	brl	L10220
  4337                        L10222:
  4338 00:DEB1: EE EA 7D     	inc	cip
  4339 00:DEB4: 20 31 D9     	jsr	iexp
  4340 00:DEB7: 85 0D        	sta	<L268+lineno_1
  4341 00:DEB9: AD E2 7F     	lda	err
  4342 00:DEBC: 29 FF 00     	and	#$ff
  4343 00:DEBF: F0 03        	beq	L273
  4344 00:DEC1: 82 B1 05     	brl	L10221
  4345                        L273:
  4346 00:DEC4: D4 0D        	pei	<L268+lineno_1
  4347 00:DEC6: 20 5A D2     	jsr	getlp
  4348 00:DEC9: 85 0F        	sta	<L268+lp_1
  4349 00:DECB: D4 0F        	pei	<L268+lp_1
  4350 00:DECD: 20 14 D2     	jsr	getlineno
  4351 00:DED0: 85 01        	sta	<R0
  4352 00:DED2: A5 01        	lda	<R0
  4353 00:DED4: C5 0D        	cmp	<L268+lineno_1
  4354 00:DED6: D0 03        	bne	L274
  4355 00:DED8: 82 0C 00     	brl	L10223
  4356                        L274:
  4357 00:DEDB: E2 20        	sep	#$20
  4358                        	longa	off
  4359 00:DEDD: A9 10        	lda	#$10
  4360 00:DEDF: 8D E2 7F     	sta	err
  4361 00:DEE2: C2 20        	rep	#$20
  4362                        	longa	on
  4363 00:DEE4: 82 8E 05     	brl	L10221
  4364                        L10223:
  4365 00:DEE7: A5 0F        	lda	<L268+lp_1
  4366 00:DEE9: 8D EC 7D     	sta	clp
  4367 00:DEEC: 18           	clc
  4368 00:DEED: A9 03 00     	lda	#$3
  4369 00:DEF0: 6D EC 7D     	adc	clp
  4370 00:DEF3: 8D EA 7D     	sta	cip
  4371 00:DEF6: 82 7C 05     	brl	L10221
  4372                        L10224:
  4373 00:DEF9: EE EA 7D     	inc	cip
  4374 00:DEFC: 20 31 D9     	jsr	iexp
  4375 00:DEFF: 85 0D        	sta	<L268+lineno_1
  4376 00:DF01: AD E2 7F     	lda	err
  4377 00:DF04: 29 FF 00     	and	#$ff
  4378 00:DF07: F0 03        	beq	L275
  4379 00:DF09: 82 69 05     	brl	L10221
  4380                        L275:
  4381 00:DF0C: D4 0D        	pei	<L268+lineno_1
  4382 00:DF0E: 20 5A D2     	jsr	getlp
  4383 00:DF11: 85 0F        	sta	<L268+lp_1
  4384 00:DF13: D4 0F        	pei	<L268+lp_1
  4385 00:DF15: 20 14 D2     	jsr	getlineno
  4386 00:DF18: 85 01        	sta	<R0
  4387 00:DF1A: A5 01        	lda	<R0
  4388 00:DF1C: C5 0D        	cmp	<L268+lineno_1
  4389 00:DF1E: D0 03        	bne	L276
  4390 00:DF20: 82 0C 00     	brl	L10225
  4391                        L276:
  4392 00:DF23: E2 20        	sep	#$20
  4393                        	longa	off
  4394 00:DF25: A9 10        	lda	#$10
  4395 00:DF27: 8D E2 7F     	sta	err
  4396 00:DF2A: C2 20        	rep	#$20
  4397                        	longa	on
  4398 00:DF2C: 82 46 05     	brl	L10221
  4399                        L10225:
  4400 00:DF2F: E2 20        	sep	#$20
  4401                        	longa	off
  4402 00:DF31: AD D7 7D     	lda	gstki
  4403 00:DF34: C9 06        	cmp	#<$6
  4404 00:DF36: C2 20        	rep	#$20
  4405                        	longa	on
  4406 00:DF38: B0 03        	bcs	L277
  4407 00:DF3A: 82 0C 00     	brl	L10226
  4408                        L277:
  4409 00:DF3D: E2 20        	sep	#$20
  4410                        	longa	off
  4411 00:DF3F: A9 06        	lda	#$6
  4412 00:DF41: 8D E2 7F     	sta	err
  4413 00:DF44: C2 20        	rep	#$20
  4414                        	longa	on
  4415 00:DF46: 82 2C 05     	brl	L10221
  4416                        L10226:
  4417 00:DF49: AD D7 7D     	lda	gstki
  4418 00:DF4C: 29 FF 00     	and	#$ff
  4419 00:DF4F: 85 05        	sta	<R1
  4420 00:DF51: A5 05        	lda	<R1
  4421 00:DF53: 0A           	asl	A
  4422 00:DF54: 85 01        	sta	<R0
  4423 00:DF56: 18           	clc
  4424 00:DF57: A9 D8 7D     	lda	#<gstk
  4425 00:DF5A: 65 01        	adc	<R0
  4426 00:DF5C: 85 05        	sta	<R1
  4427 00:DF5E: AD EC 7D     	lda	clp
  4428 00:DF61: 92 05        	sta	(<R1)
  4429 00:DF63: E2 20        	sep	#$20
  4430                        	longa	off
  4431 00:DF65: EE D7 7D     	inc	gstki
  4432 00:DF68: C2 20        	rep	#$20
  4433                        	longa	on
  4434 00:DF6A: AD D7 7D     	lda	gstki
  4435 00:DF6D: 29 FF 00     	and	#$ff
  4436 00:DF70: 85 05        	sta	<R1
  4437 00:DF72: A5 05        	lda	<R1
  4438 00:DF74: 0A           	asl	A
  4439 00:DF75: 85 01        	sta	<R0
  4440 00:DF77: 18           	clc
  4441 00:DF78: A9 D8 7D     	lda	#<gstk
  4442 00:DF7B: 65 01        	adc	<R0
  4443 00:DF7D: 85 05        	sta	<R1
  4444 00:DF7F: AD EA 7D     	lda	cip
  4445 00:DF82: 92 05        	sta	(<R1)
  4446 00:DF84: E2 20        	sep	#$20
  4447                        	longa	off
  4448 00:DF86: EE D7 7D     	inc	gstki
  4449 00:DF89: C2 20        	rep	#$20
  4450                        	longa	on
  4451 00:DF8B: AD D7 7D     	lda	gstki
  4452 00:DF8E: 29 FF 00     	and	#$ff
  4453 00:DF91: 85 05        	sta	<R1
  4454 00:DF93: A5 05        	lda	<R1
  4455 00:DF95: 0A           	asl	A
  4456 00:DF96: 85 01        	sta	<R0
  4457 00:DF98: 18           	clc
  4458 00:DF99: A9 D8 7D     	lda	#<gstk
  4459 00:DF9C: 65 01        	adc	<R0
  4460 00:DF9E: 85 05        	sta	<R1
  4461 00:DFA0: AD B8 7D     	lda	lstki
  4462 00:DFA3: 29 FF 00     	and	#$ff
  4463 00:DFA6: 92 05        	sta	(<R1)
  4464 00:DFA8: E2 20        	sep	#$20
  4465                        	longa	off
  4466 00:DFAA: EE D7 7D     	inc	gstki
  4467 00:DFAD: C2 20        	rep	#$20
  4468                        	longa	on
  4469 00:DFAF: A5 0F        	lda	<L268+lp_1
  4470 00:DFB1: 8D EC 7D     	sta	clp
  4471 00:DFB4: 18           	clc
  4472 00:DFB5: A9 03 00     	lda	#$3
  4473 00:DFB8: 6D EC 7D     	adc	clp
  4474 00:DFBB: 8D EA 7D     	sta	cip
  4475 00:DFBE: 82 B4 04     	brl	L10221
  4476                        L10227:
  4477 00:DFC1: E2 20        	sep	#$20
  4478                        	longa	off
  4479 00:DFC3: AD D7 7D     	lda	gstki
  4480 00:DFC6: C9 03        	cmp	#<$3
  4481 00:DFC8: C2 20        	rep	#$20
  4482                        	longa	on
  4483 00:DFCA: 90 03        	bcc	L278
  4484 00:DFCC: 82 0C 00     	brl	L10228
  4485                        L278:
  4486 00:DFCF: E2 20        	sep	#$20
  4487                        	longa	off
  4488 00:DFD1: A9 07        	lda	#$7
  4489 00:DFD3: 8D E2 7F     	sta	err
  4490 00:DFD6: C2 20        	rep	#$20
  4491                        	longa	on
  4492 00:DFD8: 82 9A 04     	brl	L10221
  4493                        L10228:
  4494 00:DFDB: E2 20        	sep	#$20
  4495                        	longa	off
  4496 00:DFDD: CE D7 7D     	dec	gstki
  4497 00:DFE0: C2 20        	rep	#$20
  4498                        	longa	on
  4499 00:DFE2: AD D7 7D     	lda	gstki
  4500 00:DFE5: 29 FF 00     	and	#$ff
  4501 00:DFE8: 85 05        	sta	<R1
  4502 00:DFEA: A5 05        	lda	<R1
  4503 00:DFEC: 0A           	asl	A
  4504 00:DFED: 85 01        	sta	<R0
  4505 00:DFEF: 18           	clc
  4506 00:DFF0: A9 D8 7D     	lda	#<gstk
  4507 00:DFF3: 65 01        	adc	<R0
  4508 00:DFF5: 85 05        	sta	<R1
  4509 00:DFF7: E2 20        	sep	#$20
  4510                        	longa	off
  4511 00:DFF9: B2 05        	lda	(<R1)
  4512 00:DFFB: 8D B8 7D     	sta	lstki
  4513 00:DFFE: C2 20        	rep	#$20
  4514                        	longa	on
  4515 00:E000: E2 20        	sep	#$20
  4516                        	longa	off
  4517 00:E002: CE D7 7D     	dec	gstki
  4518 00:E005: C2 20        	rep	#$20
  4519                        	longa	on
  4520 00:E007: AD D7 7D     	lda	gstki
  4521 00:E00A: 29 FF 00     	and	#$ff
  4522 00:E00D: 85 05        	sta	<R1
  4523 00:E00F: A5 05        	lda	<R1
  4524 00:E011: 0A           	asl	A
  4525 00:E012: 85 01        	sta	<R0
  4526 00:E014: 18           	clc
  4527 00:E015: A9 D8 7D     	lda	#<gstk
  4528 00:E018: 65 01        	adc	<R0
  4529 00:E01A: 85 05        	sta	<R1
  4530 00:E01C: B2 05        	lda	(<R1)
  4531 00:E01E: 8D EA 7D     	sta	cip
  4532 00:E021: E2 20        	sep	#$20
  4533                        	longa	off
  4534 00:E023: CE D7 7D     	dec	gstki
  4535 00:E026: C2 20        	rep	#$20
  4536                        	longa	on
  4537 00:E028: AD D7 7D     	lda	gstki
  4538 00:E02B: 29 FF 00     	and	#$ff
  4539 00:E02E: 85 05        	sta	<R1
  4540 00:E030: A5 05        	lda	<R1
  4541 00:E032: 0A           	asl	A
  4542 00:E033: 85 01        	sta	<R0
  4543 00:E035: 18           	clc
  4544 00:E036: A9 D8 7D     	lda	#<gstk
  4545 00:E039: 65 01        	adc	<R0
  4546 00:E03B: 85 05        	sta	<R1
  4547 00:E03D: B2 05        	lda	(<R1)
  4548 00:E03F: 8D EC 7D     	sta	clp
  4549 00:E042: 82 30 04     	brl	L10221
  4550                        L10229:
  4551 00:E045: EE EA 7D     	inc	cip
  4552 00:E048: AD EA 7D     	lda	cip
  4553 00:E04B: 85 01        	sta	<R0
  4554 00:E04D: EE EA 7D     	inc	cip
  4555 00:E050: E2 20        	sep	#$20
  4556                        	longa	off
  4557 00:E052: B2 01        	lda	(<R0)
  4558 00:E054: C9 24        	cmp	#<$24
  4559 00:E056: C2 20        	rep	#$20
  4560                        	longa	on
  4561 00:E058: D0 03        	bne	L279
  4562 00:E05A: 82 0C 00     	brl	L10230
  4563                        L279:
  4564 00:E05D: E2 20        	sep	#$20
  4565                        	longa	off
  4566 00:E05F: A9 0C        	lda	#$c
  4567 00:E061: 8D E2 7F     	sta	err
  4568 00:E064: C2 20        	rep	#$20
  4569                        	longa	on
  4570 00:E066: 82 0C 04     	brl	L10221
  4571                        L10230:
  4572 00:E069: AD EA 7D     	lda	cip
  4573 00:E06C: 85 01        	sta	<R0
  4574 00:E06E: B2 01        	lda	(<R0)
  4575 00:E070: 29 FF 00     	and	#$ff
  4576 00:E073: 85 11        	sta	<L268+index_1
  4577 00:E075: 20 21 DD     	jsr	ivar
  4578 00:E078: AD E2 7F     	lda	err
  4579 00:E07B: 29 FF 00     	and	#$ff
  4580 00:E07E: F0 03        	beq	L280
  4581 00:E080: 82 F2 03     	brl	L10221
  4582                        L280:
  4583 00:E083: AD EA 7D     	lda	cip
  4584 00:E086: 85 01        	sta	<R0
  4585 00:E088: E2 20        	sep	#$20
  4586                        	longa	off
  4587 00:E08A: B2 01        	lda	(<R0)
  4588 00:E08C: C9 04        	cmp	#<$4
  4589 00:E08E: C2 20        	rep	#$20
  4590                        	longa	on
  4591 00:E090: F0 03        	beq	L281
  4592 00:E092: 82 0B 00     	brl	L10231
  4593                        L281:
  4594 00:E095: EE EA 7D     	inc	cip
  4595 00:E098: 20 31 D9     	jsr	iexp
  4596 00:E09B: 85 13        	sta	<L268+vto_1
  4597 00:E09D: 82 0C 00     	brl	L10232
  4598                        L10231:
  4599 00:E0A0: E2 20        	sep	#$20
  4600                        	longa	off
  4601 00:E0A2: A9 0D        	lda	#$d
  4602 00:E0A4: 8D E2 7F     	sta	err
  4603 00:E0A7: C2 20        	rep	#$20
  4604                        	longa	on
  4605 00:E0A9: 82 C9 03     	brl	L10221
  4606                        L10232:
  4607 00:E0AC: AD EA 7D     	lda	cip
  4608 00:E0AF: 85 01        	sta	<R0
  4609 00:E0B1: E2 20        	sep	#$20
  4610                        	longa	off
  4611 00:E0B3: B2 01        	lda	(<R0)
  4612 00:E0B5: C9 05        	cmp	#<$5
  4613 00:E0B7: C2 20        	rep	#$20
  4614                        	longa	on
  4615 00:E0B9: F0 03        	beq	L282
  4616 00:E0BB: 82 0B 00     	brl	L10233
  4617                        L282:
  4618 00:E0BE: EE EA 7D     	inc	cip
  4619 00:E0C1: 20 31 D9     	jsr	iexp
  4620 00:E0C4: 85 15        	sta	<L268+vstep_1
  4621 00:E0C6: 82 05 00     	brl	L10234
  4622                        L10233:
  4623 00:E0C9: A9 01 00     	lda	#$1
  4624 00:E0CC: 85 15        	sta	<L268+vstep_1
  4625                        L10234:
  4626 00:E0CE: A5 15        	lda	<L268+vstep_1
  4627 00:E0D0: 30 03        	bmi	L285
  4628 00:E0D2: 82 17 00     	brl	L284
  4629                        L285:
  4630 00:E0D5: 38           	sec
  4631 00:E0D6: A9 01 80     	lda	#$8001
  4632 00:E0D9: E5 15        	sbc	<L268+vstep_1
  4633 00:E0DB: 85 01        	sta	<R0
  4634 00:E0DD: 38           	sec
  4635 00:E0DE: A5 13        	lda	<L268+vto_1
  4636 00:E0E0: E5 01        	sbc	<R0
  4637 00:E0E2: 70 03        	bvs	L286
  4638 00:E0E4: 49 00 80     	eor	#$8000
  4639                        L286:
  4640 00:E0E7: 30 03        	bmi	L287
  4641 00:E0E9: 82 27 00     	brl	L283
  4642                        L287:
  4643                        L284:
  4644 00:E0EC: 38           	sec
  4645 00:E0ED: A9 00 00     	lda	#$0
  4646 00:E0F0: E5 15        	sbc	<L268+vstep_1
  4647 00:E0F2: 70 03        	bvs	L288
  4648 00:E0F4: 49 00 80     	eor	#$8000
  4649                        L288:
  4650 00:E0F7: 10 03        	bpl	L289
  4651 00:E0F9: 82 23 00     	brl	L10235
  4652                        L289:
  4653 00:E0FC: 38           	sec
  4654 00:E0FD: A9 FF 7F     	lda	#$7fff
  4655 00:E100: E5 15        	sbc	<L268+vstep_1
  4656 00:E102: 85 01        	sta	<R0
  4657 00:E104: 38           	sec
  4658 00:E105: A5 01        	lda	<R0
  4659 00:E107: E5 13        	sbc	<L268+vto_1
  4660 00:E109: 70 03        	bvs	L290
  4661 00:E10B: 49 00 80     	eor	#$8000
  4662                        L290:
  4663 00:E10E: 10 03        	bpl	L291
  4664 00:E110: 82 0C 00     	brl	L10235
  4665                        L291:
  4666                        L283:
  4667 00:E113: E2 20        	sep	#$20
  4668                        	longa	off
  4669 00:E115: A9 02        	lda	#$2
  4670 00:E117: 8D E2 7F     	sta	err
  4671 00:E11A: C2 20        	rep	#$20
  4672                        	longa	on
  4673 00:E11C: 82 56 03     	brl	L10221
  4674                        L10235:
  4675 00:E11F: E2 20        	sep	#$20
  4676                        	longa	off
  4677 00:E121: AD B8 7D     	lda	lstki
  4678 00:E124: C9 0A        	cmp	#<$a
  4679 00:E126: C2 20        	rep	#$20
  4680                        	longa	on
  4681 00:E128: B0 03        	bcs	L292
  4682 00:E12A: 82 0C 00     	brl	L10236
  4683                        L292:
  4684 00:E12D: E2 20        	sep	#$20
  4685                        	longa	off
  4686 00:E12F: A9 08        	lda	#$8
  4687 00:E131: 8D E2 7F     	sta	err
  4688 00:E134: C2 20        	rep	#$20
  4689                        	longa	on
  4690 00:E136: 82 3C 03     	brl	L10221
  4691                        L10236:
  4692 00:E139: AD B8 7D     	lda	lstki
  4693 00:E13C: 29 FF 00     	and	#$ff
  4694 00:E13F: 85 05        	sta	<R1
  4695 00:E141: A5 05        	lda	<R1
  4696 00:E143: 0A           	asl	A
  4697 00:E144: 85 01        	sta	<R0
  4698 00:E146: 18           	clc
  4699 00:E147: A9 B9 7D     	lda	#<lstk
  4700 00:E14A: 65 01        	adc	<R0
  4701 00:E14C: 85 05        	sta	<R1
  4702 00:E14E: AD EC 7D     	lda	clp
  4703 00:E151: 92 05        	sta	(<R1)
  4704 00:E153: E2 20        	sep	#$20
  4705                        	longa	off
  4706 00:E155: EE B8 7D     	inc	lstki
  4707 00:E158: C2 20        	rep	#$20
  4708                        	longa	on
  4709 00:E15A: AD B8 7D     	lda	lstki
  4710 00:E15D: 29 FF 00     	and	#$ff
  4711 00:E160: 85 05        	sta	<R1
  4712 00:E162: A5 05        	lda	<R1
  4713 00:E164: 0A           	asl	A
  4714 00:E165: 85 01        	sta	<R0
  4715 00:E167: 18           	clc
  4716 00:E168: A9 B9 7D     	lda	#<lstk
  4717 00:E16B: 65 01        	adc	<R0
  4718 00:E16D: 85 05        	sta	<R1
  4719 00:E16F: AD EA 7D     	lda	cip
  4720 00:E172: 92 05        	sta	(<R1)
  4721 00:E174: E2 20        	sep	#$20
  4722                        	longa	off
  4723 00:E176: EE B8 7D     	inc	lstki
  4724 00:E179: C2 20        	rep	#$20
  4725                        	longa	on
  4726 00:E17B: AD B8 7D     	lda	lstki
  4727 00:E17E: 29 FF 00     	and	#$ff
  4728 00:E181: 85 05        	sta	<R1
  4729 00:E183: A5 05        	lda	<R1
  4730 00:E185: 0A           	asl	A
  4731 00:E186: 85 01        	sta	<R0
  4732 00:E188: 18           	clc
  4733 00:E189: A9 B9 7D     	lda	#<lstk
  4734 00:E18C: 65 01        	adc	<R0
  4735 00:E18E: 85 05        	sta	<R1
  4736 00:E190: A5 13        	lda	<L268+vto_1
  4737 00:E192: 92 05        	sta	(<R1)
  4738 00:E194: E2 20        	sep	#$20
  4739                        	longa	off
  4740 00:E196: EE B8 7D     	inc	lstki
  4741 00:E199: C2 20        	rep	#$20
  4742                        	longa	on
  4743 00:E19B: AD B8 7D     	lda	lstki
  4744 00:E19E: 29 FF 00     	and	#$ff
  4745 00:E1A1: 85 05        	sta	<R1
  4746 00:E1A3: A5 05        	lda	<R1
  4747 00:E1A5: 0A           	asl	A
  4748 00:E1A6: 85 01        	sta	<R0
  4749 00:E1A8: 18           	clc
  4750 00:E1A9: A9 B9 7D     	lda	#<lstk
  4751 00:E1AC: 65 01        	adc	<R0
  4752 00:E1AE: 85 05        	sta	<R1
  4753 00:E1B0: A5 15        	lda	<L268+vstep_1
  4754 00:E1B2: 92 05        	sta	(<R1)
  4755 00:E1B4: E2 20        	sep	#$20
  4756                        	longa	off
  4757 00:E1B6: EE B8 7D     	inc	lstki
  4758 00:E1B9: C2 20        	rep	#$20
  4759                        	longa	on
  4760 00:E1BB: AD B8 7D     	lda	lstki
  4761 00:E1BE: 29 FF 00     	and	#$ff
  4762 00:E1C1: 85 05        	sta	<R1
  4763 00:E1C3: A5 05        	lda	<R1
  4764 00:E1C5: 0A           	asl	A
  4765 00:E1C6: 85 01        	sta	<R0
  4766 00:E1C8: 18           	clc
  4767 00:E1C9: A9 B9 7D     	lda	#<lstk
  4768 00:E1CC: 65 01        	adc	<R0
  4769 00:E1CE: 85 05        	sta	<R1
  4770 00:E1D0: A5 11        	lda	<L268+index_1
  4771 00:E1D2: 92 05        	sta	(<R1)
  4772 00:E1D4: E2 20        	sep	#$20
  4773                        	longa	off
  4774 00:E1D6: EE B8 7D     	inc	lstki
  4775 00:E1D9: C2 20        	rep	#$20
  4776                        	longa	on
  4777 00:E1DB: 82 97 02     	brl	L10221
  4778                        L10237:
  4779 00:E1DE: EE EA 7D     	inc	cip
  4780 00:E1E1: E2 20        	sep	#$20
  4781                        	longa	off
  4782 00:E1E3: AD B8 7D     	lda	lstki
  4783 00:E1E6: C9 05        	cmp	#<$5
  4784 00:E1E8: C2 20        	rep	#$20
  4785                        	longa	on
  4786 00:E1EA: 90 03        	bcc	L293
  4787 00:E1EC: 82 0C 00     	brl	L10238
  4788                        L293:
  4789 00:E1EF: E2 20        	sep	#$20
  4790                        	longa	off
  4791 00:E1F1: A9 09        	lda	#$9
  4792 00:E1F3: 8D E2 7F     	sta	err
  4793 00:E1F6: C2 20        	rep	#$20
  4794                        	longa	on
  4795 00:E1F8: 82 7A 02     	brl	L10221
  4796                        L10238:
  4797 00:E1FB: AD B8 7D     	lda	lstki
  4798 00:E1FE: 29 FF 00     	and	#$ff
  4799 00:E201: 85 05        	sta	<R1
  4800 00:E203: A5 05        	lda	<R1
  4801 00:E205: 0A           	asl	A
  4802 00:E206: 85 01        	sta	<R0
  4803 00:E208: 18           	clc
  4804 00:E209: A9 FE FF     	lda	#$fffe
  4805 00:E20C: 69 B9 7D     	adc	#<lstk
  4806 00:E20F: 85 05        	sta	<R1
  4807 00:E211: 18           	clc
  4808 00:E212: A5 05        	lda	<R1
  4809 00:E214: 65 01        	adc	<R0
  4810 00:E216: 85 09        	sta	<R2
  4811 00:E218: B2 09        	lda	(<R2)
  4812 00:E21A: 85 11        	sta	<L268+index_1
  4813 00:E21C: AD EA 7D     	lda	cip
  4814 00:E21F: 85 01        	sta	<R0
  4815 00:E221: EE EA 7D     	inc	cip
  4816 00:E224: E2 20        	sep	#$20
  4817                        	longa	off
  4818 00:E226: B2 01        	lda	(<R0)
  4819 00:E228: C9 24        	cmp	#<$24
  4820 00:E22A: C2 20        	rep	#$20
  4821                        	longa	on
  4822 00:E22C: D0 03        	bne	L294
  4823 00:E22E: 82 0C 00     	brl	L10239
  4824                        L294:
  4825 00:E231: E2 20        	sep	#$20
  4826                        	longa	off
  4827 00:E233: A9 0A        	lda	#$a
  4828 00:E235: 8D E2 7F     	sta	err
  4829 00:E238: C2 20        	rep	#$20
  4830                        	longa	on
  4831 00:E23A: 82 38 02     	brl	L10221
  4832                        L10239:
  4833 00:E23D: AD EA 7D     	lda	cip
  4834 00:E240: 85 01        	sta	<R0
  4835 00:E242: EE EA 7D     	inc	cip
  4836 00:E245: B2 01        	lda	(<R0)
  4837 00:E247: 29 FF 00     	and	#$ff
  4838 00:E24A: 85 01        	sta	<R0
  4839 00:E24C: A5 01        	lda	<R0
  4840 00:E24E: C5 11        	cmp	<L268+index_1
  4841 00:E250: D0 03        	bne	L295
  4842 00:E252: 82 0C 00     	brl	L10240
  4843                        L295:
  4844 00:E255: E2 20        	sep	#$20
  4845                        	longa	off
  4846 00:E257: A9 0B        	lda	#$b
  4847 00:E259: 8D E2 7F     	sta	err
  4848 00:E25C: C2 20        	rep	#$20
  4849                        	longa	on
  4850 00:E25E: 82 14 02     	brl	L10221
  4851                        L10240:
  4852 00:E261: AD B8 7D     	lda	lstki
  4853 00:E264: 29 FF 00     	and	#$ff
  4854 00:E267: 85 05        	sta	<R1
  4855 00:E269: A5 05        	lda	<R1
  4856 00:E26B: 0A           	asl	A
  4857 00:E26C: 85 01        	sta	<R0
  4858 00:E26E: 18           	clc
  4859 00:E26F: A9 FC FF     	lda	#$fffc
  4860 00:E272: 69 B9 7D     	adc	#<lstk
  4861 00:E275: 85 05        	sta	<R1
  4862 00:E277: 18           	clc
  4863 00:E278: A5 05        	lda	<R1
  4864 00:E27A: 65 01        	adc	<R0
  4865 00:E27C: 85 09        	sta	<R2
  4866 00:E27E: B2 09        	lda	(<R2)
  4867 00:E280: 85 15        	sta	<L268+vstep_1
  4868 00:E282: A5 11        	lda	<L268+index_1
  4869 00:E284: 0A           	asl	A
  4870 00:E285: 85 01        	sta	<R0
  4871 00:E287: 18           	clc
  4872 00:E288: A9 6E 7E     	lda	#<var
  4873 00:E28B: 65 01        	adc	<R0
  4874 00:E28D: 85 05        	sta	<R1
  4875 00:E28F: 18           	clc
  4876 00:E290: B2 05        	lda	(<R1)
  4877 00:E292: 65 15        	adc	<L268+vstep_1
  4878 00:E294: 92 05        	sta	(<R1)
  4879 00:E296: AD B8 7D     	lda	lstki
  4880 00:E299: 29 FF 00     	and	#$ff
  4881 00:E29C: 85 05        	sta	<R1
  4882 00:E29E: A5 05        	lda	<R1
  4883 00:E2A0: 0A           	asl	A
  4884 00:E2A1: 85 01        	sta	<R0
  4885 00:E2A3: 18           	clc
  4886 00:E2A4: A9 FA FF     	lda	#$fffa
  4887 00:E2A7: 69 B9 7D     	adc	#<lstk
  4888 00:E2AA: 85 05        	sta	<R1
  4889 00:E2AC: 18           	clc
  4890 00:E2AD: A5 05        	lda	<R1
  4891 00:E2AF: 65 01        	adc	<R0
  4892 00:E2B1: 85 09        	sta	<R2
  4893 00:E2B3: B2 09        	lda	(<R2)
  4894 00:E2B5: 85 13        	sta	<L268+vto_1
  4895 00:E2B7: A5 15        	lda	<L268+vstep_1
  4896 00:E2B9: 30 03        	bmi	L298
  4897 00:E2BB: 82 1C 00     	brl	L297
  4898                        L298:
  4899 00:E2BE: A5 11        	lda	<L268+index_1
  4900 00:E2C0: 0A           	asl	A
  4901 00:E2C1: 85 01        	sta	<R0
  4902 00:E2C3: 18           	clc
  4903 00:E2C4: A9 6E 7E     	lda	#<var
  4904 00:E2C7: 65 01        	adc	<R0
  4905 00:E2C9: 85 05        	sta	<R1
  4906 00:E2CB: 38           	sec
  4907 00:E2CC: B2 05        	lda	(<R1)
  4908 00:E2CE: E5 13        	sbc	<L268+vto_1
  4909 00:E2D0: 70 03        	bvs	L299
  4910 00:E2D2: 49 00 80     	eor	#$8000
  4911                        L299:
  4912 00:E2D5: 30 03        	bmi	L300
  4913 00:E2D7: 82 2C 00     	brl	L296
  4914                        L300:
  4915                        L297:
  4916 00:E2DA: 38           	sec
  4917 00:E2DB: A9 00 00     	lda	#$0
  4918 00:E2DE: E5 15        	sbc	<L268+vstep_1
  4919 00:E2E0: 70 03        	bvs	L301
  4920 00:E2E2: 49 00 80     	eor	#$8000
  4921                        L301:
  4922 00:E2E5: 10 03        	bpl	L302
  4923 00:E2E7: 82 38 00     	brl	L10241
  4924                        L302:
  4925 00:E2EA: A5 11        	lda	<L268+index_1
  4926 00:E2EC: 0A           	asl	A
  4927 00:E2ED: 85 01        	sta	<R0
  4928 00:E2EF: 18           	clc
  4929 00:E2F0: A9 6E 7E     	lda	#<var
  4930 00:E2F3: 65 01        	adc	<R0
  4931 00:E2F5: 85 05        	sta	<R1
  4932 00:E2F7: 38           	sec
  4933 00:E2F8: A5 13        	lda	<L268+vto_1
  4934 00:E2FA: F2 05        	sbc	(<R1)
  4935 00:E2FC: 70 03        	bvs	L303
  4936 00:E2FE: 49 00 80     	eor	#$8000
  4937                        L303:
  4938 00:E301: 10 03        	bpl	L304
  4939 00:E303: 82 1C 00     	brl	L10241
  4940                        L304:
  4941                        L296:
  4942 00:E306: AD B8 7D     	lda	lstki
  4943 00:E309: 29 FF 00     	and	#$ff
  4944 00:E30C: 85 01        	sta	<R0
  4945 00:E30E: 18           	clc
  4946 00:E30F: A9 FB FF     	lda	#$fffb
  4947 00:E312: 65 01        	adc	<R0
  4948 00:E314: 85 05        	sta	<R1
  4949 00:E316: E2 20        	sep	#$20
  4950                        	longa	off
  4951 00:E318: A5 05        	lda	<R1
  4952 00:E31A: 8D B8 7D     	sta	lstki
  4953 00:E31D: C2 20        	rep	#$20
  4954                        	longa	on
  4955 00:E31F: 82 53 01     	brl	L10221
  4956                        L10241:
  4957 00:E322: AD B8 7D     	lda	lstki
  4958 00:E325: 29 FF 00     	and	#$ff
  4959 00:E328: 85 05        	sta	<R1
  4960 00:E32A: A5 05        	lda	<R1
  4961 00:E32C: 0A           	asl	A
  4962 00:E32D: 85 01        	sta	<R0
  4963 00:E32F: 18           	clc
  4964 00:E330: A9 F8 FF     	lda	#$fff8
  4965 00:E333: 69 B9 7D     	adc	#<lstk
  4966 00:E336: 85 05        	sta	<R1
  4967 00:E338: 18           	clc
  4968 00:E339: A5 05        	lda	<R1
  4969 00:E33B: 65 01        	adc	<R0
  4970 00:E33D: 85 09        	sta	<R2
  4971 00:E33F: B2 09        	lda	(<R2)
  4972 00:E341: 8D EA 7D     	sta	cip
  4973 00:E344: AD B8 7D     	lda	lstki
  4974 00:E347: 29 FF 00     	and	#$ff
  4975 00:E34A: 85 05        	sta	<R1
  4976 00:E34C: A5 05        	lda	<R1
  4977 00:E34E: 0A           	asl	A
  4978 00:E34F: 85 01        	sta	<R0
  4979 00:E351: 18           	clc
  4980 00:E352: A9 F6 FF     	lda	#$fff6
  4981 00:E355: 69 B9 7D     	adc	#<lstk
  4982 00:E358: 85 05        	sta	<R1
  4983 00:E35A: 18           	clc
  4984 00:E35B: A5 05        	lda	<R1
  4985 00:E35D: 65 01        	adc	<R0
  4986 00:E35F: 85 09        	sta	<R2
  4987 00:E361: B2 09        	lda	(<R2)
  4988 00:E363: 8D EC 7D     	sta	clp
  4989 00:E366: 82 0C 01     	brl	L10221
  4990                        L10242:
  4991 00:E369: EE EA 7D     	inc	cip
  4992 00:E36C: 20 31 D9     	jsr	iexp
  4993 00:E36F: 85 17        	sta	<L268+condition_1
  4994 00:E371: AD E2 7F     	lda	err
  4995 00:E374: 29 FF 00     	and	#$ff
  4996 00:E377: D0 03        	bne	L305
  4997 00:E379: 82 0C 00     	brl	L10243
  4998                        L305:
  4999 00:E37C: E2 20        	sep	#$20
  5000                        	longa	off
  5001 00:E37E: A9 0F        	lda	#$f
  5002 00:E380: 8D E2 7F     	sta	err
  5003 00:E383: C2 20        	rep	#$20
  5004                        	longa	on
  5005 00:E385: 82 ED 00     	brl	L10221
  5006                        L10243:
  5007 00:E388: A5 17        	lda	<L268+condition_1
  5008 00:E38A: F0 03        	beq	L306
  5009 00:E38C: 82 E6 00     	brl	L10221
  5010                        L306:
  5011                        L10244:
  5012                        L10245:
  5013 00:E38F: AD EA 7D     	lda	cip
  5014 00:E392: 85 01        	sta	<R0
  5015 00:E394: E2 20        	sep	#$20
  5016                        	longa	off
  5017 00:E396: B2 01        	lda	(<R0)
  5018 00:E398: C9 26        	cmp	#<$26
  5019 00:E39A: C2 20        	rep	#$20
  5020                        	longa	on
  5021 00:E39C: D0 03        	bne	L307
  5022 00:E39E: 82 06 00     	brl	L10246
  5023                        L307:
  5024 00:E3A1: EE EA 7D     	inc	cip
  5025 00:E3A4: 82 E8 FF     	brl	L10245
  5026                        L10246:
  5027 00:E3A7: 82 CB 00     	brl	L10221
  5028                        L10247:
  5029                        L10248:
  5030 00:E3AA: AD EC 7D     	lda	clp
  5031 00:E3AD: 85 01        	sta	<R0
  5032 00:E3AF: B2 01        	lda	(<R0)
  5033 00:E3B1: 29 FF 00     	and	#$ff
  5034 00:E3B4: D0 03        	bne	L308
  5035 00:E3B6: 82 18 00     	brl	L10249
  5036                        L308:
  5037 00:E3B9: AD EC 7D     	lda	clp
  5038 00:E3BC: 85 01        	sta	<R0
  5039 00:E3BE: B2 01        	lda	(<R0)
  5040 00:E3C0: 29 FF 00     	and	#$ff
  5041 00:E3C3: 85 01        	sta	<R0
  5042 00:E3C5: 18           	clc
  5043 00:E3C6: AD EC 7D     	lda	clp
  5044 00:E3C9: 65 01        	adc	<R0
  5045 00:E3CB: 8D EC 7D     	sta	clp
  5046 00:E3CE: 82 D9 FF     	brl	L10248
  5047                        L10249:
  5048 00:E3D1: AD EC 7D     	lda	clp
  5049 00:E3D4: 82 C3 FA     	brl	L272
  5050                        L10250:
  5051 00:E3D7: EE EA 7D     	inc	cip
  5052 00:E3DA: 20 21 DD     	jsr	ivar
  5053 00:E3DD: 82 95 00     	brl	L10221
  5054                        L10251:
  5055 00:E3E0: EE EA 7D     	inc	cip
  5056 00:E3E3: 20 85 DD     	jsr	iarray
  5057 00:E3E6: 82 8C 00     	brl	L10221
  5058                        L10252:
  5059 00:E3E9: EE EA 7D     	inc	cip
  5060 00:E3EC: 20 09 DE     	jsr	ilet
  5061 00:E3EF: 82 83 00     	brl	L10221
  5062                        L10253:
  5063 00:E3F2: EE EA 7D     	inc	cip
  5064 00:E3F5: 20 40 DA     	jsr	iprint
  5065 00:E3F8: 82 7A 00     	brl	L10221
  5066                        L10254:
  5067 00:E3FB: EE EA 7D     	inc	cip
  5068 00:E3FE: 20 7C DB     	jsr	iinput
  5069 00:E401: 82 71 00     	brl	L10221
  5070                        L10255:
  5071 00:E404: EE EA 7D     	inc	cip
  5072 00:E407: 82 6B 00     	brl	L10221
  5073                        L10256:
  5074                        L10257:
  5075                        L10258:
  5076 00:E40A: E2 20        	sep	#$20
  5077                        	longa	off
  5078 00:E40C: A9 13        	lda	#$13
  5079 00:E40E: 8D E2 7F     	sta	err
  5080 00:E411: C2 20        	rep	#$20
  5081                        	longa	on
  5082 00:E413: 82 5F 00     	brl	L10221
  5083                        L10259:
  5084 00:E416: E2 20        	sep	#$20
  5085                        	longa	off
  5086 00:E418: A9 14        	lda	#$14
  5087 00:E41A: 8D E2 7F     	sta	err
  5088 00:E41D: C2 20        	rep	#$20
  5089                        	longa	on
  5090 00:E41F: 82 53 00     	brl	L10221
  5091                        L10220:
  5092 00:E422: 20 13 C5     	jsr	fsw
  5093 00:E425: 00 00        	dw	0
  5094 00:E427: 25 00        	dw	37
  5095 00:E429: 15 E4        	dw	L10259-1
  5096 00:E42B: B0 DE        	dw	L10222-1
  5097 00:E42D: F8 DE        	dw	L10224-1
  5098 00:E42F: C0 DF        	dw	L10227-1
  5099 00:E431: 44 E0        	dw	L10229-1
  5100 00:E433: 15 E4        	dw	L10259-1
  5101 00:E435: 15 E4        	dw	L10259-1
  5102 00:E437: DD E1        	dw	L10237-1
  5103 00:E439: 68 E3        	dw	L10242-1
  5104 00:E43B: 8E E3        	dw	L10244-1
  5105 00:E43D: A9 E3        	dw	L10247-1
  5106 00:E43F: FA E3        	dw	L10254-1
  5107 00:E441: F1 E3        	dw	L10253-1
  5108 00:E443: E8 E3        	dw	L10252-1
  5109 00:E445: 15 E4        	dw	L10259-1
  5110 00:E447: 03 E4        	dw	L10255-1
  5111 00:E449: 15 E4        	dw	L10259-1
  5112 00:E44B: 15 E4        	dw	L10259-1
  5113 00:E44D: 15 E4        	dw	L10259-1
  5114 00:E44F: 15 E4        	dw	L10259-1
  5115 00:E451: 15 E4        	dw	L10259-1
  5116 00:E453: 15 E4        	dw	L10259-1
  5117 00:E455: 15 E4        	dw	L10259-1
  5118 00:E457: 15 E4        	dw	L10259-1
  5119 00:E459: 15 E4        	dw	L10259-1
  5120 00:E45B: 15 E4        	dw	L10259-1
  5121 00:E45D: 15 E4        	dw	L10259-1
  5122 00:E45F: 15 E4        	dw	L10259-1
  5123 00:E461: DF E3        	dw	L10251-1
  5124 00:E463: 15 E4        	dw	L10259-1
  5125 00:E465: 15 E4        	dw	L10259-1
  5126 00:E467: 15 E4        	dw	L10259-1
  5127 00:E469: 09 E4        	dw	L10256-1
  5128 00:E46B: 09 E4        	dw	L10258-1
  5129 00:E46D: 09 E4        	dw	L10257-1
  5130 00:E46F: 15 E4        	dw	L10259-1
  5131 00:E471: 15 E4        	dw	L10259-1
  5132 00:E473: D6 E3        	dw	L10250-1
  5133                        L10221:
  5134 00:E475: AD E2 7F     	lda	err
  5135 00:E478: 29 FF 00     	and	#$ff
  5136 00:E47B: D0 03        	bne	L309
  5137 00:E47D: 82 06 00     	brl	L10260
  5138                        L309:
  5139 00:E480: A9 00 00     	lda	#$0
  5140 00:E483: 82 14 FA     	brl	L272
  5141                        L10260:
  5142 00:E486: 82 D2 F9     	brl	L10216
  5143                        L10217:
  5144 00:E489: AD EC 7D     	lda	clp
  5145 00:E48C: 85 01        	sta	<R0
  5146 00:E48E: B2 01        	lda	(<R0)
  5147 00:E490: 29 FF 00     	and	#$ff
  5148 00:E493: 85 01        	sta	<R0
  5149 00:E495: 18           	clc
  5150 00:E496: AD EC 7D     	lda	clp
  5151 00:E499: 65 01        	adc	<R0
  5152 00:E49B: 85 05        	sta	<R1
  5153 00:E49D: A5 05        	lda	<R1
  5154 00:E49F: 82 F8 F9     	brl	L272
  5155             00000018   L267	equ	24
  5156             0000000D   L268	equ	13
  5157                        
  5158                        irun:
  5159                        	longa	on
  5160                        	longi	on
  5161 00:E4A2: 3B           	tsc
  5162 00:E4A3: 38           	sec
  5163 00:E4A4: E9 06 00     	sbc	#L310
  5164 00:E4A7: 1B           	tcs
  5165 00:E4A8: 0B           	phd
  5166 00:E4A9: 5B           	tcd
  5167             00000000   lp_1	set	0
  5168 00:E4AA: E2 20        	sep	#$20
  5169                        	longa	off
  5170 00:E4AC: 9C D7 7D     	stz	gstki
  5171 00:E4AF: C2 20        	rep	#$20
  5172                        	longa	on
  5173 00:E4B1: E2 20        	sep	#$20
  5174                        	longa	off
  5175 00:E4B3: 9C B8 7D     	stz	lstki
  5176 00:E4B6: C2 20        	rep	#$20
  5177                        	longa	on
  5178 00:E4B8: A9 00 04     	lda	#<listbuf
  5179 00:E4BB: 8D EC 7D     	sta	clp
  5180                        L10261:
  5181 00:E4BE: AD EC 7D     	lda	clp
  5182 00:E4C1: 85 01        	sta	<R0
  5183 00:E4C3: B2 01        	lda	(<R0)
  5184 00:E4C5: 29 FF 00     	and	#$ff
  5185 00:E4C8: D0 03        	bne	L312
  5186 00:E4CA: 82 2A 00     	brl	L10262
  5187                        L312:
  5188 00:E4CD: 18           	clc
  5189 00:E4CE: A9 03 00     	lda	#$3
  5190 00:E4D1: 6D EC 7D     	adc	clp
  5191 00:E4D4: 8D EA 7D     	sta	cip
  5192 00:E4D7: 20 53 DE     	jsr	iexe
  5193 00:E4DA: 85 05        	sta	<L311+lp_1
  5194 00:E4DC: AD E2 7F     	lda	err
  5195 00:E4DF: 29 FF 00     	and	#$ff
  5196 00:E4E2: D0 03        	bne	L313
  5197 00:E4E4: 82 08 00     	brl	L10263
  5198                        L313:
  5199                        L314:
  5200 00:E4E7: 2B           	pld
  5201 00:E4E8: 3B           	tsc
  5202 00:E4E9: 18           	clc
  5203 00:E4EA: 69 06 00     	adc	#L310
  5204 00:E4ED: 1B           	tcs
  5205 00:E4EE: 60           	rts
  5206                        L10263:
  5207 00:E4EF: A5 05        	lda	<L311+lp_1
  5208 00:E4F1: 8D EC 7D     	sta	clp
  5209 00:E4F4: 82 C7 FF     	brl	L10261
  5210                        L10262:
  5211 00:E4F7: 82 ED FF     	brl	L314
  5212             00000006   L310	equ	6
  5213             00000005   L311	equ	5
  5214                        
  5215                        ilist:
  5216                        	longa	on
  5217                        	longi	on
  5218 00:E4FA: 3B           	tsc
  5219 00:E4FB: 38           	sec
  5220 00:E4FC: E9 06 00     	sbc	#L315
  5221 00:E4FF: 1B           	tcs
  5222 00:E500: 0B           	phd
  5223 00:E501: 5B           	tcd
  5224             00000000   lineno_1	set	0
  5225 00:E502: AD EA 7D     	lda	cip
  5226 00:E505: 85 01        	sta	<R0
  5227 00:E507: E2 20        	sep	#$20
  5228                        	longa	off
  5229 00:E509: B2 01        	lda	(<R0)
  5230 00:E50B: C9 23        	cmp	#<$23
  5231 00:E50D: C2 20        	rep	#$20
  5232                        	longa	on
  5233 00:E50F: F0 03        	beq	L318
  5234 00:E511: 82 09 00     	brl	L317
  5235                        L318:
  5236 00:E514: AD EA 7D     	lda	cip
  5237 00:E517: 48           	pha
  5238 00:E518: 20 14 D2     	jsr	getlineno
  5239 00:E51B: 80 03        	bra	L319
  5240                        L317:
  5241 00:E51D: A9 00 00     	lda	#$0
  5242                        L319:
  5243 00:E520: 85 05        	sta	<L316+lineno_1
  5244 00:E522: A9 00 04     	lda	#<listbuf
  5245 00:E525: 8D EC 7D     	sta	clp
  5246 00:E528: 82 15 00     	brl	L10265
  5247                        L10264:
  5248 00:E52B: AD EC 7D     	lda	clp
  5249 00:E52E: 85 01        	sta	<R0
  5250 00:E530: B2 01        	lda	(<R0)
  5251 00:E532: 29 FF 00     	and	#$ff
  5252 00:E535: 85 01        	sta	<R0
  5253 00:E537: 18           	clc
  5254 00:E538: AD EC 7D     	lda	clp
  5255 00:E53B: 65 01        	adc	<R0
  5256 00:E53D: 8D EC 7D     	sta	clp
  5257                        L10265:
  5258 00:E540: AD EC 7D     	lda	clp
  5259 00:E543: 85 01        	sta	<R0
  5260 00:E545: B2 01        	lda	(<R0)
  5261 00:E547: 29 FF 00     	and	#$ff
  5262 00:E54A: D0 03        	bne	L320
  5263 00:E54C: 82 1B 00     	brl	L10266
  5264                        L320:
  5265 00:E54F: AD EC 7D     	lda	clp
  5266 00:E552: 48           	pha
  5267 00:E553: 20 14 D2     	jsr	getlineno
  5268 00:E556: 85 01        	sta	<R0
  5269 00:E558: 38           	sec
  5270 00:E559: A5 01        	lda	<R0
  5271 00:E55B: E5 05        	sbc	<L316+lineno_1
  5272 00:E55D: 70 03        	bvs	L321
  5273 00:E55F: 49 00 80     	eor	#$8000
  5274                        L321:
  5275 00:E562: 10 03        	bpl	L322
  5276 00:E564: 82 03 00     	brl	L10266
  5277                        L322:
  5278 00:E567: 82 C1 FF     	brl	L10264
  5279                        L10266:
  5280                        L10267:
  5281 00:E56A: AD EC 7D     	lda	clp
  5282 00:E56D: 85 01        	sta	<R0
  5283 00:E56F: B2 01        	lda	(<R0)
  5284 00:E571: 29 FF 00     	and	#$ff
  5285 00:E574: D0 03        	bne	L323
  5286 00:E576: 82 48 00     	brl	L10268
  5287                        L323:
  5288 00:E579: F4 00 00     	pea	#<$0
  5289 00:E57C: AD EC 7D     	lda	clp
  5290 00:E57F: 48           	pha
  5291 00:E580: 20 14 D2     	jsr	getlineno
  5292 00:E583: 48           	pha
  5293 00:E584: 20 3F CB     	jsr	putnum
  5294 00:E587: F4 20 00     	pea	#<$20
  5295 00:E58A: 20 26 C4     	jsr	c_putch
  5296 00:E58D: 18           	clc
  5297 00:E58E: A9 03 00     	lda	#$3
  5298 00:E591: 6D EC 7D     	adc	clp
  5299 00:E594: 85 01        	sta	<R0
  5300 00:E596: D4 01        	pei	<R0
  5301 00:E598: 20 28 D4     	jsr	putlist
  5302 00:E59B: AD E2 7F     	lda	err
  5303 00:E59E: 29 FF 00     	and	#$ff
  5304 00:E5A1: F0 03        	beq	L324
  5305 00:E5A3: 82 1B 00     	brl	L10268
  5306                        L324:
  5307 00:E5A6: 20 6E C5     	jsr	newline
  5308 00:E5A9: AD EC 7D     	lda	clp
  5309 00:E5AC: 85 01        	sta	<R0
  5310 00:E5AE: B2 01        	lda	(<R0)
  5311 00:E5B0: 29 FF 00     	and	#$ff
  5312 00:E5B3: 85 01        	sta	<R0
  5313 00:E5B5: 18           	clc
  5314 00:E5B6: AD EC 7D     	lda	clp
  5315 00:E5B9: 65 01        	adc	<R0
  5316 00:E5BB: 8D EC 7D     	sta	clp
  5317 00:E5BE: 82 A9 FF     	brl	L10267
  5318                        L10268:
  5319                        L325:
  5320 00:E5C1: 2B           	pld
  5321 00:E5C2: 3B           	tsc
  5322 00:E5C3: 18           	clc
  5323 00:E5C4: 69 06 00     	adc	#L315
  5324 00:E5C7: 1B           	tcs
  5325 00:E5C8: 60           	rts
  5326             00000006   L315	equ	6
  5327             00000005   L316	equ	5
  5328                        
  5329                        inew:
  5330                        	longa	on
  5331                        	longi	on
  5332 00:E5C9: 3B           	tsc
  5333 00:E5CA: 38           	sec
  5334 00:E5CB: E9 09 00     	sbc	#L326
  5335 00:E5CE: 1B           	tcs
  5336 00:E5CF: 0B           	phd
  5337 00:E5D0: 5B           	tcd
  5338             00000000   i_1	set	0
  5339 00:E5D1: E2 20        	sep	#$20
  5340                        	longa	off
  5341 00:E5D3: 64 09        	stz	<L327+i_1
  5342 00:E5D5: C2 20        	rep	#$20
  5343                        	longa	on
  5344 00:E5D7: 82 06 00     	brl	L10270
  5345                        L10269:
  5346 00:E5DA: E2 20        	sep	#$20
  5347                        	longa	off
  5348 00:E5DC: E6 09        	inc	<L327+i_1
  5349 00:E5DE: C2 20        	rep	#$20
  5350                        	longa	on
  5351                        L10270:
  5352 00:E5E0: E2 20        	sep	#$20
  5353                        	longa	off
  5354 00:E5E2: A5 09        	lda	<L327+i_1
  5355 00:E5E4: C9 1A        	cmp	#<$1a
  5356 00:E5E6: C2 20        	rep	#$20
  5357                        	longa	on
  5358 00:E5E8: 90 03        	bcc	L328
  5359 00:E5EA: 82 1C 00     	brl	L10271
  5360                        L328:
  5361 00:E5ED: A5 09        	lda	<L327+i_1
  5362 00:E5EF: 29 FF 00     	and	#$ff
  5363 00:E5F2: 85 05        	sta	<R1
  5364 00:E5F4: A5 05        	lda	<R1
  5365 00:E5F6: 0A           	asl	A
  5366 00:E5F7: 85 01        	sta	<R0
  5367 00:E5F9: 18           	clc
  5368 00:E5FA: A9 6E 7E     	lda	#<var
  5369 00:E5FD: 65 01        	adc	<R0
  5370 00:E5FF: 85 05        	sta	<R1
  5371 00:E601: A9 00 00     	lda	#$0
  5372 00:E604: 92 05        	sta	(<R1)
  5373 00:E606: 82 D1 FF     	brl	L10269
  5374                        L10271:
  5375 00:E609: E2 20        	sep	#$20
  5376                        	longa	off
  5377 00:E60B: 64 09        	stz	<L327+i_1
  5378 00:E60D: C2 20        	rep	#$20
  5379                        	longa	on
  5380 00:E60F: 82 06 00     	brl	L10273
  5381                        L10272:
  5382 00:E612: E2 20        	sep	#$20
  5383                        	longa	off
  5384 00:E614: E6 09        	inc	<L327+i_1
  5385 00:E616: C2 20        	rep	#$20
  5386                        	longa	on
  5387                        L10273:
  5388 00:E618: E2 20        	sep	#$20
  5389                        	longa	off
  5390 00:E61A: A5 09        	lda	<L327+i_1
  5391 00:E61C: C9 40        	cmp	#<$40
  5392 00:E61E: C2 20        	rep	#$20
  5393                        	longa	on
  5394 00:E620: 90 03        	bcc	L329
  5395 00:E622: 82 1C 00     	brl	L10274
  5396                        L329:
  5397 00:E625: A5 09        	lda	<L327+i_1
  5398 00:E627: 29 FF 00     	and	#$ff
  5399 00:E62A: 85 05        	sta	<R1
  5400 00:E62C: A5 05        	lda	<R1
  5401 00:E62E: 0A           	asl	A
  5402 00:E62F: 85 01        	sta	<R0
  5403 00:E631: 18           	clc
  5404 00:E632: A9 EE 7D     	lda	#<arr
  5405 00:E635: 65 01        	adc	<R0
  5406 00:E637: 85 05        	sta	<R1
  5407 00:E639: A9 00 00     	lda	#$0
  5408 00:E63C: 92 05        	sta	(<R1)
  5409 00:E63E: 82 D1 FF     	brl	L10272
  5410                        L10274:
  5411 00:E641: E2 20        	sep	#$20
  5412                        	longa	off
  5413 00:E643: 9C D7 7D     	stz	gstki
  5414 00:E646: C2 20        	rep	#$20
  5415                        	longa	on
  5416 00:E648: E2 20        	sep	#$20
  5417                        	longa	off
  5418 00:E64A: 9C B8 7D     	stz	lstki
  5419 00:E64D: C2 20        	rep	#$20
  5420                        	longa	on
  5421 00:E64F: E2 20        	sep	#$20
  5422                        	longa	off
  5423 00:E651: 9C 00 04     	stz	listbuf
  5424 00:E654: C2 20        	rep	#$20
  5425                        	longa	on
  5426 00:E656: A9 00 04     	lda	#<listbuf
  5427 00:E659: 8D EC 7D     	sta	clp
  5428                        L330:
  5429 00:E65C: 2B           	pld
  5430 00:E65D: 3B           	tsc
  5431 00:E65E: 18           	clc
  5432 00:E65F: 69 09 00     	adc	#L326
  5433 00:E662: 1B           	tcs
  5434 00:E663: 60           	rts
  5435             00000009   L326	equ	9
  5436             00000009   L327	equ	9
  5437                        
  5438                        icom:
  5439                        	longa	on
  5440                        	longi	on
  5441 00:E664: 3B           	tsc
  5442 00:E665: 38           	sec
  5443 00:E666: E9 04 00     	sbc	#L331
  5444 00:E669: 1B           	tcs
  5445 00:E66A: 0B           	phd
  5446 00:E66B: 5B           	tcd
  5447 00:E66C: A9 A2 7E     	lda	#<ibuf
  5448 00:E66F: 8D EA 7D     	sta	cip
  5449 00:E672: AD EA 7D     	lda	cip
  5450 00:E675: 85 01        	sta	<R0
  5451 00:E677: B2 01        	lda	(<R0)
  5452 00:E679: 29 FF 00     	and	#$ff
  5453 00:E67C: 82 72 00     	brl	L10275
  5454                        L10277:
  5455 00:E67F: EE EA 7D     	inc	cip
  5456 00:E682: AD EA 7D     	lda	cip
  5457 00:E685: 85 01        	sta	<R0
  5458 00:E687: E2 20        	sep	#$20
  5459                        	longa	off
  5460 00:E689: B2 01        	lda	(<R0)
  5461 00:E68B: C9 26        	cmp	#<$26
  5462 00:E68D: C2 20        	rep	#$20
  5463                        	longa	on
  5464 00:E68F: F0 03        	beq	L333
  5465 00:E691: 82 06 00     	brl	L10278
  5466                        L333:
  5467 00:E694: 20 C9 E5     	jsr	inew
  5468 00:E697: 82 09 00     	brl	L10279
  5469                        L10278:
  5470 00:E69A: E2 20        	sep	#$20
  5471                        	longa	off
  5472 00:E69C: A9 14        	lda	#$14
  5473 00:E69E: 8D E2 7F     	sta	err
  5474 00:E6A1: C2 20        	rep	#$20
  5475                        	longa	on
  5476                        L10279:
  5477 00:E6A3: 82 5E 00     	brl	L10276
  5478                        L10280:
  5479 00:E6A6: EE EA 7D     	inc	cip
  5480 00:E6A9: AD EA 7D     	lda	cip
  5481 00:E6AC: 85 01        	sta	<R0
  5482 00:E6AE: E2 20        	sep	#$20
  5483                        	longa	off
  5484 00:E6B0: B2 01        	lda	(<R0)
  5485 00:E6B2: C9 26        	cmp	#<$26
  5486 00:E6B4: C2 20        	rep	#$20
  5487                        	longa	on
  5488 00:E6B6: D0 03        	bne	L335
  5489 00:E6B8: 82 15 00     	brl	L334
  5490                        L335:
  5491 00:E6BB: AD EA 7D     	lda	cip
  5492 00:E6BE: 85 01        	sta	<R0
  5493 00:E6C0: E2 20        	sep	#$20
  5494                        	longa	off
  5495 00:E6C2: A0 03 00     	ldy	#$3
  5496 00:E6C5: B1 01        	lda	(<R0),Y
  5497 00:E6C7: C9 26        	cmp	#<$26
  5498 00:E6C9: C2 20        	rep	#$20
  5499                        	longa	on
  5500 00:E6CB: F0 03        	beq	L336
  5501 00:E6CD: 82 06 00     	brl	L10281
  5502                        L336:
  5503                        L334:
  5504 00:E6D0: 20 FA E4     	jsr	ilist
  5505 00:E6D3: 82 09 00     	brl	L10282
  5506                        L10281:
  5507 00:E6D6: E2 20        	sep	#$20
  5508                        	longa	off
  5509 00:E6D8: A9 14        	lda	#$14
  5510 00:E6DA: 8D E2 7F     	sta	err
  5511 00:E6DD: C2 20        	rep	#$20
  5512                        	longa	on
  5513                        L10282:
  5514 00:E6DF: 82 22 00     	brl	L10276
  5515                        L10283:
  5516 00:E6E2: EE EA 7D     	inc	cip
  5517 00:E6E5: 20 A2 E4     	jsr	irun
  5518 00:E6E8: 82 19 00     	brl	L10276
  5519                        L10284:
  5520 00:E6EB: 20 53 DE     	jsr	iexe
  5521 00:E6EE: 82 13 00     	brl	L10276
  5522                        L10275:
  5523 00:E6F1: 20 F7 C4     	jsr	swt
  5524 00:E6F4: 03 00        	dw	3
  5525 00:E6F6: 1F 00        	dw	31
  5526 00:E6F8: A5 E6        	dw	L10280-1
  5527 00:E6FA: 20 00        	dw	32
  5528 00:E6FC: E1 E6        	dw	L10283-1
  5529 00:E6FE: 21 00        	dw	33
  5530 00:E700: 7E E6        	dw	L10277-1
  5531 00:E702: EA E6        	dw	L10284-1
  5532                        L10276:
  5533                        L337:
  5534 00:E704: 2B           	pld
  5535 00:E705: 3B           	tsc
  5536 00:E706: 18           	clc
  5537 00:E707: 69 04 00     	adc	#L331
  5538 00:E70A: 1B           	tcs
  5539 00:E70B: 60           	rts
  5540             00000004   L331	equ	4
  5541             00000005   L332	equ	5
  5542                        
  5543                        error:
  5544                        	longa	on
  5545                        	longi	on
  5546 00:E70C: 3B           	tsc
  5547 00:E70D: 38           	sec
  5548 00:E70E: E9 08 00     	sbc	#L338
  5549 00:E711: 1B           	tcs
  5550 00:E712: 0B           	phd
  5551 00:E713: 5B           	tcd
  5552 00:E714: AD E2 7F     	lda	err
  5553 00:E717: 29 FF 00     	and	#$ff
  5554 00:E71A: D0 03        	bne	L340
  5555 00:E71C: 82 62 00     	brl	L10285
  5556                        L340:
  5557 00:E71F: AD EA 7D     	lda	cip
  5558 00:E722: C9 00 04     	cmp	#<listbuf
  5559 00:E725: B0 03        	bcs	L341
  5560 00:E727: 82 48 00     	brl	L10286
  5561                        L341:
  5562 00:E72A: AD EA 7D     	lda	cip
  5563 00:E72D: C9 B8 7D     	cmp	#<listbuf+BUF_SIZE
  5564 00:E730: 90 03        	bcc	L342
  5565 00:E732: 82 3D 00     	brl	L10286
  5566                        L342:
  5567 00:E735: AD EC 7D     	lda	clp
  5568 00:E738: 85 01        	sta	<R0
  5569 00:E73A: B2 01        	lda	(<R0)
  5570 00:E73C: 29 FF 00     	and	#$ff
  5571 00:E73F: D0 03        	bne	L343
  5572 00:E741: 82 2E 00     	brl	L10286
  5573                        L343:
  5574 00:E744: 20 6E C5     	jsr	newline
  5575 00:E747: F4 B1 E7     	pea	#<L250
  5576 00:E74A: 20 FA C9     	jsr	c_puts
  5577 00:E74D: F4 00 00     	pea	#<$0
  5578 00:E750: AD EC 7D     	lda	clp
  5579 00:E753: 48           	pha
  5580 00:E754: 20 14 D2     	jsr	getlineno
  5581 00:E757: 48           	pha
  5582 00:E758: 20 3F CB     	jsr	putnum
  5583 00:E75B: F4 20 00     	pea	#<$20
  5584 00:E75E: 20 26 C4     	jsr	c_putch
  5585 00:E761: 18           	clc
  5586 00:E762: A9 03 00     	lda	#$3
  5587 00:E765: 6D EC 7D     	adc	clp
  5588 00:E768: 85 01        	sta	<R0
  5589 00:E76A: D4 01        	pei	<R0
  5590 00:E76C: 20 28 D4     	jsr	putlist
  5591 00:E76F: 82 0F 00     	brl	L10287
  5592                        L10286:
  5593 00:E772: 20 6E C5     	jsr	newline
  5594 00:E775: F4 B7 E7     	pea	#<L250+6
  5595 00:E778: 20 FA C9     	jsr	c_puts
  5596 00:E77B: F4 42 7F     	pea	#<lbuf
  5597 00:E77E: 20 FA C9     	jsr	c_puts
  5598                        L10287:
  5599                        L10285:
  5600 00:E781: 20 6E C5     	jsr	newline
  5601 00:E784: AD E2 7F     	lda	err
  5602 00:E787: 29 FF 00     	and	#$ff
  5603 00:E78A: 85 05        	sta	<R1
  5604 00:E78C: A5 05        	lda	<R1
  5605 00:E78E: 0A           	asl	A
  5606 00:E78F: 85 01        	sta	<R0
  5607 00:E791: 18           	clc
  5608 00:E792: A9 E5 C6     	lda	#<errmsg
  5609 00:E795: 65 01        	adc	<R0
  5610 00:E797: 85 05        	sta	<R1
  5611 00:E799: B2 05        	lda	(<R1)
  5612 00:E79B: 48           	pha
  5613 00:E79C: 20 FA C9     	jsr	c_puts
  5614 00:E79F: 20 6E C5     	jsr	newline
  5615 00:E7A2: E2 20        	sep	#$20
  5616                        	longa	off
  5617 00:E7A4: 9C E2 7F     	stz	err
  5618 00:E7A7: C2 20        	rep	#$20
  5619                        	longa	on
  5620                        L344:
  5621 00:E7A9: 2B           	pld
  5622 00:E7AA: 3B           	tsc
  5623 00:E7AB: 18           	clc
  5624 00:E7AC: 69 08 00     	adc	#L338
  5625 00:E7AF: 1B           	tcs
  5626 00:E7B0: 60           	rts
  5627             00000008   L338	equ	8
  5628             00000009   L339	equ	9
  5629                        
  5630                        L250:
  5631 00:E7B1: 4C 49 4E 45  	db	$4C,$49,$4E,$45,$3A,$00,$59,$4F,$55,$20,$54,$59,$50,$45,$3A
       00:E7B5: 3A 00 59 4F 
       00:E7B9: 55 20 54 59 
       00:E7BD: 50 45 3A 
  5632 00:E7C0: 20 00        	db	$20,$00
  5633                        
  5634                        basic:
  5635                        	longa	on
  5636                        	longi	on
  5637 00:E7C2: 3B           	tsc
  5638 00:E7C3: 38           	sec
  5639 00:E7C4: E9 01 00     	sbc	#L346
  5640 00:E7C7: 1B           	tcs
  5641 00:E7C8: 0B           	phd
  5642 00:E7C9: 5B           	tcd
  5643             00000000   len_1	set	0
  5644 00:E7CA: 20 C9 E5     	jsr	inew
  5645 00:E7CD: F4 5F E8     	pea	#<L345
  5646 00:E7D0: 20 FA C9     	jsr	c_puts
  5647 00:E7D3: 20 6E C5     	jsr	newline
  5648 00:E7D6: F4 74 E8     	pea	#<L345+21
  5649 00:E7D9: 20 FA C9     	jsr	c_puts
  5650 00:E7DC: F4 80 E8     	pea	#<L345+33
  5651 00:E7DF: 20 FA C9     	jsr	c_puts
  5652 00:E7E2: 20 6E C5     	jsr	newline
  5653                        	short_a
+ 5653 00:E7E5: E2 20                        sep     #M_FLAG
+ 5653                                        longa   off
  5654 00:E7E7: 9C E2 7F     	stz	err
  5655                        	long_a
+ 5655 00:E7EA: C2 20                        rep     #M_FLAG
+ 5655                                        longa   on
  5656 00:E7EC: 20 0C E7     	jsr	error
  5657                        L10288:
  5658 00:E7EF: F4 3E 00     	pea	#<$3e
  5659 00:E7F2: 20 26 C4     	jsr	c_putch
  5660 00:E7F5: 20 27 CA     	jsr	c_gets
  5661 00:E7F8: 20 CA CD     	jsr	toktoi
  5662 00:E7FB: E2 20        	sep	#$20
  5663                        	longa	off
  5664 00:E7FD: 85 01        	sta	<L347+len_1
  5665 00:E7FF: C2 20        	rep	#$20
  5666                        	longa	on
  5667 00:E801: AD E2 7F     	lda	err
  5668 00:E804: 29 FF 00     	and	#$ff
  5669 00:E807: D0 03        	bne	L348
  5670 00:E809: 82 06 00     	brl	L10290
  5671                        L348:
  5672 00:E80C: 20 0C E7     	jsr	error
  5673 00:E80F: 82 DD FF     	brl	L10288
  5674                        L10290:
  5675 00:E812: E2 20        	sep	#$20
  5676                        	longa	off
  5677 00:E814: AD A2 7E     	lda	ibuf
  5678 00:E817: C9 22        	cmp	#<$22
  5679 00:E819: C2 20        	rep	#$20
  5680                        	longa	on
  5681 00:E81B: F0 03        	beq	L349
  5682 00:E81D: 82 0B 00     	brl	L10291
  5683                        L349:
  5684 00:E820: 82 4A DC     	brl	pg_finish
  5685                        L350:
  5686 00:E823: 2B           	pld
  5687 00:E824: 3B           	tsc
  5688 00:E825: 18           	clc
  5689 00:E826: 69 01 00     	adc	#L346
  5690 00:E829: 1B           	tcs
  5691 00:E82A: 60           	rts
  5692                        L10291:
  5693 00:E82B: E2 20        	sep	#$20
  5694                        	longa	off
  5695 00:E82D: AD A2 7E     	lda	ibuf
  5696 00:E830: C9 23        	cmp	#<$23
  5697 00:E832: C2 20        	rep	#$20
  5698                        	longa	on
  5699 00:E834: F0 03        	beq	L351
  5700 00:E836: 82 1D 00     	brl	L10292
  5701                        L351:
  5702 00:E839: E2 20        	sep	#$20
  5703                        	longa	off
  5704 00:E83B: A5 01        	lda	<L347+len_1
  5705 00:E83D: 8D A2 7E     	sta	ibuf
  5706 00:E840: C2 20        	rep	#$20
  5707                        	longa	on
  5708 00:E842: 20 EE D2     	jsr	inslist
  5709 00:E845: AD E2 7F     	lda	err
  5710 00:E848: 29 FF 00     	and	#$ff
  5711 00:E84B: D0 03        	bne	L352
  5712 00:E84D: 82 03 00     	brl	L10293
  5713                        L352:
  5714 00:E850: 20 0C E7     	jsr	error
  5715                        L10293:
  5716 00:E853: 82 99 FF     	brl	L10288
  5717                        L10292:
  5718 00:E856: 20 64 E6     	jsr	icom
  5719 00:E859: 20 0C E7     	jsr	error
  5720 00:E85C: 82 90 FF     	brl	L10288
  5721             00000001   L346	equ	1
  5722             00000001   L347	equ	1
  5723                        
  5724                        L345:
  5725 00:E85F: 54 4F 59 4F  	db	$54,$4F,$59,$4F,$53,$48,$49,$4B,$49,$20,$54,$49,$4E,$59,$20
       00:E863: 53 48 49 4B 
       00:E867: 49 20 54 49 
       00:E86B: 4E 59 20 
  5726 00:E86E: 42 41 53 49  	db	$42,$41,$53,$49,$43,$00,$4D,$45,$5A,$57,$36,$35,$43,$5F,$52
       00:E872: 43 00 4D 45 
       00:E876: 5A 57 36 35 
       00:E87A: 43 5F 52 
  5727 00:E87D: 41 4D 00 20  	db	$41,$4D,$00,$20,$45,$44,$49,$54,$49,$4F,$4E,$00
       00:E881: 45 44 49 54 
       00:E885: 49 4F 4E 00 
  5728                        
  5729 00:E889:              	ds	$10000-$
  5730                        
  5731                        	end


      Lines assembled: 5865
      Errors: 0
